(lp1
S'_UNK_'
p2
aVsinjar
p3
aVfour
p4
aVhanging
p5
aVaggression
p6
aVmarching
p7
aVlooking
p8
aVeligible
p9
aVelectricity
p10
aVconsulate
p11
aVlord
p12
aVregional
p13
aVbest-trained
p14
aVbringing
p15
aVwednesday
p16
aV1963
p17
aVstraight
p18
aVguardsmen
p19
aVcharter
p20
aVtired
p21
aVholocaust
p22
aVsecond
p23
aVerrors
p24
aVruthless
p25
aVself-reliant
p26
aVcontributed
p27
aVfingers
p28
aVbonuses
p29
aVfossil
p30
aVresilient
p31
aVincreasing
p32
aVsuccumb
p33
aVspecialist
p34
aVhero
p35
aVavert
p36
aVmalloy
p37
aVreporter
p38
aVhere
p39
aVchina
p40
aVborrowers
p41
aVsubstance
p42
aVreports
p43
aVcontroversy
p44
aVmilitary
p45
aVsolis
p46
aVcriticism
p47
aVgolden
p48
aVdivide
p49
aVexplained
p50
aVreplace
p51
aVbrought
p52
aVunit
p53
aVopponents
p54
aVpresents
p55
aVspoke
p56
aVoccupying
p57
aVmusic
p58
aVtherefore
p59
aVstrike
p60
aVmarchers
p61
aVsermons
p62
aVuntil
p63
aVholy
p64
aVpopulations
p65
aVsuccessful
p66
aVbrings
p67
aVhigh-wage
p68
aVhurt
p69
aVglass
p70
aVhe\u2019ll
p71
aV90
p72
aVmidst
p73
aVhold
p74
aV95
p75
aVcircumstances
p76
aVdecoration
p77
aVmorally
p78
aVlocked
p79
aVpursue
p80
aVplunged
p81
aVrevenues
p82
aVexample
p83
aVunjust
p84
aVhousehold
p85
aVorganized
p86
aVcurrency
p87
aVreviewing
p88
aVwant
p89
aVorganizer
p90
aVabsolute
p91
aVtravel
p92
aVdamage
p93
aVmachine
p94
aVhow
p95
aVgeithner
p96
aVpreferable
p97
aVdignified
p98
aVoceans
p99
aVbeauty
p100
aVshores
p101
aVwrong
p102
aVtypes
p103
aVsteadfast
p104
aVmaytag
p105
aVeffective
p106
aVoccasions
p107
aVkeeps
p108
aVdemocratic
p109
aVfrontlines
p110
aVwind
p111
aVwine
p112
aVsenators
p113
aVwelcomed
p114
aVdreamed
p115
aVgovern
p116
aVmadiba
p117
aVpartnered
p118
aVdrawdown
p119
aVstockpiles
p120
aVfidelity
p121
aVwrought
p122
aVfit
p123
aVscreaming
p124
aVfix
p125
aVsurvivors
p126
aVrescued
p127
aVhidden
p128
aVeasier
p129
aVenrich
p130
aVelementary
p131
aVeducating
p132
aVeffects
p133
aVschools
p134
aVsilver
p135
aVcompetitiveness
p136
aVrepresents
p137
aVholiness
p138
aVcrops
p139
aVfinancial
p140
aVconcord
p141
aVseries
p142
aV250,000
p143
aV2,500
p144
aVsubstantially
p145
aVtruman
p146
aVtricked
p147
aVborne
p148
aVfreeze
p149
aVmason
p150
aVencourage
p151
aVadapt
p152
aVfoundation
p153
aVimported
p154
aVassured
p155
aVthreatened
p156
aVcornerstone
p157
aVenormous
p158
aVdevastation
p159
aVheading
p160
aVshipped
p161
aVtempting
p162
aVpetraeus
p163
aVclarity
p164
aVbasketball
p165
aVservice
p166
aVengagement
p167
aVneeded
p168
aVmaster
p169
aVlivelihoods
p170
aVbitter
p171
aVlisten
p172
aVrewards
p173
aVcollapse
p174
aVgeneva
p175
aVwisdom
p176
aV2008.
p177
aVrelent
p178
aVperil
p179
aVrabbi
p180
aVshowed
p181
aVtree
p182
aVidly
p183
aVnations
p184
aVproject
p185
aVendure
p186
aVfeeling
p187
aVunintended
p188
aVwillingness
p189
aVboston
p190
aVspectrum
p191
aVselflessness
p192
aValive
p193
aVdozen
p194
aVaffairs
p195
aVperson
p196
aV60th
p197
aVresponsible
p198
aVdoors
p199
aVresponsibly
p200
aVlayoffs
p201
aVshall
p202
aVwells
p203
aVsimplify
p204
aVletter
p205
aVorganization
p206
aVdrought
p207
aVcops
p208
aVprofessor
p209
aVcamp
p210
aVtech
p211
aVcame
p212
aVsaying
p213
aVbomb
p214
aVmeetings
p215
aVadvisors
p216
aVqaeda
p217
aVparticipate
p218
aVlethal
p219
aVtempted
p220
aVlessons
p221
aVorleans
p222
aVbusy
p223
aVlights
p224
aVcousins
p225
aVbush
p226
aVtouched
p227
aVrich
p228
aVrice
p229
aVtelevision
p230
aVforemost
p231
aVpocket
p232
aVlenders
p233
aValtogether
p234
aVsocieties
p235
aVadmiral
p236
aVrelease
p237
aVaftermath
p238
aVboarded
p239
aVrespond
p240
aVdisaster
p241
aVfair
p242
aVdeemed
p243
aVtransferred
p244
aVbled
p245
aVresult
p246
aVfail
p247
aVbest
p248
aVcobra
p249
aVambitions
p250
aVpressures
p251
aVscore
p252
aVpreserve
p253
aVdiscipline
p254
aVnever
p255
aVextend
p256
aVnature
p257
aVrolled
p258
aVinextricably
p259
aVaffiliates
p260
aVextent
p261
aVheads
p262
aVcarbon
p263
aVdebt
p264
aVtyranny
p265
aVaccident
p266
aVsacrificing
p267
aVreported
p268
aVcountry
p269
aVcup
p270
aVseth
p271
aVdemanded
p272
aVplanned
p273
aVnormandy
p274
aVlogic
p275
aVargue
p276
aVadapted
p277
aVasked
p278
aVeradicate
p279
aV30th
p280
aVchains
p281
aV2nd
p282
aV250
p283
aVfema
p284
aVeager
p285
aVunion
p286
aV.
aVmuch
p287
aVprivilege
p288
aVlife
p289
aVeastern
p290
aVworker
p291
aVwish
p292
aVsnap
p293
aVdave
p294
aVkids
p295
aVchile
p296
aVchild
p297
aVworked
p298
aVcommerce
p299
aVpresidency
p300
aVcastro
p301
aVemploy
p302
aVairmen
p303
aVflooding
p304
aVremembering
p305
aVplayed
p306
aVcampaigning
p307
aVspecter
p308
aVtrusted
p309
aVmemorial
p310
aVthings
p311
aVdemocracies
p312
aVharmony
p313
aVprincipals
p314
aVeuropean
p315
aVfairly
p316
aVmarches
p317
aVworkforce
p318
aVmarched
p319
aVownership
p320
aVstriving
p321
aVpioneers
p322
aVcubans
p323
aVtune
p324
aVacademic
p325
aVacademia
p326
aVechoes
p327
aVcorporate
p328
aVopinions
p329
aVcapitol
p330
aVbirmingham
p331
aVplight
p332
aVrushing
p333
aVprevious
p334
aVease
p335
aVhad
p336
aVadvancement
p337
aVinnocent
p338
aVprison
p339
aVfalter
p340
aVhas
p341
aVelders
p342
aVsurvival
p343
aVposed
p344
aVpossible
p345
aVunequivocally
p346
aVpossibly
p347
aVgridlock
p348
aVbirth
p349
aVshadow
p350
aVposes
p351
aVdesire
p352
aVbobby
p353
aVremind
p354
aVsteps
p355
aVbucket
p356
aVdenver
p357
aVbattlefield
p358
aVattorney
p359
aVright
p360
aVold
p361
aVcrowd
p362
aVpeople
p363
aVczech
p364
aVmosques
p365
aVeasy
p366
aVcrown
p367
aVinsistence
p368
aVenemies
p369
aVfor
p370
aVbottom
p371
aVfox
p372
aVcontributing
p373
aVfoe
p374
aVindividuals
p375
aVsummoned
p376
aVbrigades
p377
aVshifting
p378
aVlosing
p379
aVmanufacturing
p380
aVshaken
p381
aVfilipino
p382
aVdollars
p383
aVcitizens
p384
aVabbas
p385
aVdespair
p386
aVsurveillance
p387
aVpalestinians
p388
aVslightly
p389
aVnixon
p390
aVraised
p391
aVstatements
p392
aVfacility
p393
aVmarshall
p394
aVson
p395
aVbeings
p396
aVmagazines
p397
aVraises
p398
aVreducing
p399
aVamerica
p400
aVfabric
p401
aVabstractions
p402
aVsupport
p403
aVconstantly
p404
aVjoseph
p405
aVauthorized
p406
aVgreatness
p407
aVresulted
p408
aVoverhead
p409
aVhalls
p410
aVlaunching
p411
aVhappy
p412
aVoffer
p413
aVunderstandably
p414
aVtalents
p415
aVunderstandable
p416
aVsafeguard
p417
aVthey\u2019re
p418
aVdelegation
p419
aVcongratulations
p420
aVhumbled
p421
aVinside
p422
aVdevices
p423
aVpanels
p424
aVaccelerate
p425
aV150
p426
aVproud
p427
aVliberal
p428
aVcentrifuges
p429
aVmuammar
p430
aVproven
p431
aV''
p432
aVexist
p433
aVaccounting
p434
aVnegotiations
p435
aVfloor
p436
aVhypocrisy
p437
aVrepublic
p438
aVambitious
p439
aVroll
p440
aV's
p441
aVmodels
p442
aVpost-9/11
p443
aV'd
p444
aVinvested
p445
aVrefusing
p446
aVrolling
p447
aV'm
p448
aVtroop
p449
aVdreamers
p450
aV98
p451
aVtypically
p452
aVcoastlines
p453
aVwarm
p454
aVtime
p455
aVpush
p456
aVsebelius
p457
aVcorps
p458
aVwhoever
p459
aVpost-traumatic
p460
aVchair
p461
aVcheat
p462
aVgiunta
p463
aVveterans
p464
aVpersevere
p465
aVpaychecks
p466
aVcheap
p467
aVrefinance
p468
aVchoice
p469
aVmourn
p470
aVstays
p471
aVconvulsions
p472
aVminute
p473
aVtear
p474
aVleave
p475
aVsolved
p476
aVsettle
p477
aVteam
p478
aVspeculation
p479
aVprevent
p480
aVfindings
p481
aVsign
p482
aVreaffirmed
p483
aVeducate
p484
aVg20
p485
aVjeopardy
p486
aVrealizing
p487
aVcurrent
p488
aVremembered
p489
aVfalling
p490
aVboost
p491
aVarizona
p492
aVgrandparents
p493
aVunderstanding
p494
aVaddress
p495
aValone
p496
aVpersecuted
p497
aVmomentous
p498
aVenroll
p499
aVbrilliant
p500
aVimpacted
p501
aVstudied
p502
aVwherever
p503
aVbrazilian
p504
aVaccomplished
p505
aVstudies
p506
aVdurbin
p507
aVtasks
p508
aVlove
p509
aVprefer
p510
aVbloody
p511
aVforefront
p512
aVdeployments
p513
aVworking
p514
aVpositive
p515
aVangry
p516
aVpredictions
p517
aVshortfalls
p518
aVimaginations
p519
aVcherished
p520
aVopposed
p521
aVwondering
p522
aVscope
p523
aVloving
p524
aVintroducing
p525
aV``
p526
aVafford
p527
aVeverywhere
p528
aVvirtue
p529
aVeasiest
p530
aVbehalf
p531
aVvalued
p532
aVdeserved
p533
aVoriginally
p534
aVpretend
p535
aVabortion
p536
aVbelieves
p537
aVvalues
p538
aVbelieved
p539
aVinterstate
p540
aVgunfire
p541
aVadmired
p542
aVawesome
p543
aVbagram
p544
aVmrs.
p545
aVallowed
p546
aVoffense
p547
aVstole
p548
aVmonitoring
p549
aVwinter
p550
aVdivided
p551
aVthanking
p552
aVdivides
p553
aVspot
p554
aVlouder
p555
aVapplications
p556
aVsuch
p557
aVrevealed
p558
aVstress
p559
aVnatural
p560
aVsectors
p561
aVso
p562
aVforebears
p563
aVpollution
p564
aVpulled
p565
aVinsurgency
p566
aVunacceptable
p567
aVyears
p568
aVprofessors
p569
aVcourse
p570
aVyearn
p571
aVtendency
p572
aVcolorado
p573
aVsolace
p574
aVinternationally
p575
aVjim
p576
aVtroubles
p577
aVamazing
p578
aVsuspicion
p579
aVbipartisan
p580
aVdecades
p581
aVabusive
p582
aVthereby
p583
aVcivilian
p584
aVsmarter
p585
aVcourageously
p586
aVnation
p587
aVrecords
p588
aVcompelled
p589
aVdrilling
p590
aVtwilight
p591
aVmaintaining
p592
aVmatched
p593
aVestablishing
p594
aVbreach
p595
aVinstability
p596
aVamnesty
p597
aVquarter
p598
aVsquare
p599
aVcrushing
p600
aVbreakthrough
p601
aVsponsor
p602
aVentering
p603
aVdisasters
p604
aVabide
p605
aVcontained
p606
aVprotections
p607
aVinternet
p608
aVsuggesting
p609
aVformula
p610
aVsiege
p611
aVmillion
p612
aVincentives
p613
aVpossibility
p614
aVquite
p615
aVplea
p616
aVremainder
p617
aVtraining
p618
aVmodest
p619
aVmassive
p620
aVneglect
p621
aVsaving
p622
aVspoken
p623
aVclause
p624
aV22
p625
aVone
p626
aVvote
p627
aVopen
p628
aVcity
p629
aVbite
p630
aVadministratively
p631
aVimposing
p632
aV2
aVdraft
p633
aVseparatists
p634
aVconvene
p635
aVstructures
p636
aVtoday\u2019s
p637
aVscourge
p638
aVcrossroads
p639
aVfuture
p640
aVrussia
p641
aVprospect
p642
aVmountain
p643
aVaddressing
p644
aVillness
p645
aVsan
p646
aVsal
p647
aVreviews
p648
aVfrancis
p649
aVturned
p650
aVargument
p651
aVsay
p652
aVburied
p653
aVallen
p654
aVsaw
p655
aVsat
p656
aVwarriors
p657
aVoutsourcing
p658
aVaside
p659
aVpeacekeeping
p660
aVnote
p661
aVjewish
p662
aVjefferson
p663
aVtake
p664
aVdestroy
p665
aVeuropeans
p666
aVopposite
p667
aVcandidly
p668
aVknew
p669
aVsuspects
p670
aVvfw
p671
aVremarks
p672
aVpages
p673
aVaverage
p674
aVdrive
p675
aVdefeating
p676
aVfederal
p677
aVbackdrop
p678
aVlink
p679
aV30,000
p680
aVlaws
p681
aVwalking
p682
aVsurplus
p683
aVrosa
p684
aVbright
p685
aVaggressive
p686
aVimagined
p687
aVslow
p688
aVconsiderable
p689
aVliberation
p690
aVtears
p691
aVgoing
p692
aVoutrage
p693
aVcaroline
p694
aVcongressional
p695
aVdispute
p696
aVassistant
p697
aVkellie
p698
aVprime
p699
aVresource
p700
aVmiddle-class
p701
aVborrow
p702
aVwarsaw
p703
aVworried
p704
aVbombs
p705
aVvision
p706
aVrewarded
p707
aVrepresentatives
p708
aVun
p709
aVwelcomes
p710
aVjobs
p711
aVdome
p712
aVspark
p713
aVsuppressed
p714
aVundermine
p715
aVcongregations
p716
aVmany
p717
aVmillionaire
p718
aVs
aVexpression
p719
aV\u201cwhat
p720
aVmccain
p721
aVradicalized
p722
aVboat
p723
aVmath
p724
aVcaring
p725
aVteddy
p726
aVstretch
p727
aVwest
p728
aVairlines
p729
aVcombined
p730
aVwants
p731
aVenable
p732
aVinfluence
p733
aVthousand
p734
aVformed
p735
aVphotos
p736
aVformer
p737
aVconception
p738
aVpettiness
p739
aVpolls
p740
aVendures
p741
aVpolicies
p742
aVnewspaper
p743
aVendured
p744
aVspotlight
p745
aVjericho
p746
aVengaged
p747
aVtechnology
p748
aVfame
p749
aVexpenditures
p750
aVmissiles
p751
aVrooting
p752
aVthreatens
p753
aVspiraling
p754
aVunderestimate
p755
aVdowns
p756
aVcountry\u2019s
p757
aVsingapore
p758
aVrenewable
p759
aVgingrich
p760
aVrain
p761
aVtracking
p762
aVcosts
p763
aVfixing
p764
aVsummer
p765
aVbeing
p766
aVrest
p767
aVsafeguards
p768
aVsummed
p769
aVgrounded
p770
aVeisenhower
p771
aVcolor
p772
aVoverthrow
p773
aVstructural
p774
aVskies
p775
aVaround
p776
aVyesterday\u2019s
p777
aVrejoin
p778
aVsums
p779
aVdark
p780
aVtraffic
p781
aVpreference
p782
aVvacuum
p783
aVworld
p784
aVbravery
p785
aVsatisfaction
p786
aVtarp
p787
aVintel
p788
aVstranger
p789
aVpundits
p790
aVsuperintendent
p791
aVlebanon
p792
aVperpetrators
p793
aVracial
p794
aVdivine
p795
aVthinks
p796
aVscholarships
p797
aVmemories
p798
aVrestoring
p799
aV2010.
p800
aVscientific
p801
aVpower
p802
aVleadership
p803
aVthailand
p804
aVstone
p805
aVpayton
p806
aVpackage
p807
aVdisabilities
p808
aVfavorite
p809
aVyezidi
p810
aVneighbor
p811
aVact
p812
aVluck
p813
aVburning
p814
aVflawed
p815
aVimage
p816
aVhomeless
p817
aVparties
p818
aVaccumulated
p819
aVher
p820
aVphiladelphia
p821
aVmeals
p822
aVmindless
p823
aVdictator
p824
aVbubble
p825
aVtireless
p826
aVcompany\u2019s
p827
aVago
p828
aVcomplete
p829
aVcongresswoman
p830
aVland
p831
aVsurvived
p832
aVhelicopter
p833
aVtechnologies
p834
aVwith
p835
aVbuying
p836
aVabused
p837
aVpull
p838
aVrush
p839
aVoctober
p840
aVrescuing
p841
aVmonopoly
p842
aVdirty
p843
aVabuses
p844
aVpolitically
p845
aVagree
p846
aVdetailed
p847
aVgone
p848
aVad
p849
aVcertain
p850
aVam
p851
aVal
p852
aVan
p853
aVas
p854
aVat
p855
aVwalks
p856
aVwatched
p857
aVprincipled
p858
aVgraduate
p859
aVstubborn
p860
aVtight
p861
aVcongress
p862
aVforgot
p863
aVa.
p864
aVbrotherhood
p865
aVhaving
p866
aVmass
p867
aVnelson
p868
aVoriginal
p869
aV9/11
p870
aVconsider
p871
aVcaused
p872
aVmodernizing
p873
aVtours
p874
aVfairness
p875
aVjason
p876
aVcauses
p877
aVhunting
p878
aVtv
p879
aVcheney
p880
aVto
p881
aVcase
p882
aVreturned
p883
aVdetention
p884
aVsaved
p885
aVtrillions
p886
aV-\u2013
p887
aVelena
p888
aVcondition
p889
aVcolumbine
p890
aVcable
p891
aVafrican-american
p892
aVlaying
p893
aVjoined
p894
aVlarge
p895
aVsang
p896
aVsand
p897
aVharry
p898
aVsmall
p899
aVpenalties
p900
aVpast
p901
aVpass
p902
aVinvestment
p903
aVrichard
p904
aVclock
p905
aVdisruptions
p906
aVsection
p907
aVprevailed
p908
aVscientists
p909
aVnurse
p910
aVseemed
p911
aVmyanmar
p912
aVfull
p913
aVempower
p914
aVhours
p915
aVlife\u2019s
p916
aVcivilians
p917
aVnovember
p918
aVbrutal
p919
aVpick
p920
aVaction
p921
aVskepticism
p922
aVfollowed
p923
aVbyrd
p924
aVregiment
p925
aVcynics
p926
aVcoercion
p927
aVvoter
p928
aVattendance
p929
aVobjectives
p930
aV6
aVmore
p931
aVteen
p932
aVdoor
p933
aVinitiated
p934
aVcompany
p935
aVtested
p936
aVcitizenry
p937
aVnonviolent
p938
aVfoundations
p939
aVit.\u201d
p940
aVkeeping
p941
aVscience
p942
aVmall
p943
aVsent
p944
aVevolved
p945
aVlearn
p946
aVknocked
p947
aVbeautiful
p948
aVcivilizations
p949
aVimpacts
p950
aVstated
p951
aVaccept
p952
aVstates
p953
aVbiden
p954
aVfiercely
p955
aVsense
p956
aVstation
p957
aVcondemn
p958
aVpanetta
p959
aVrespective
p960
aVimminent
p961
aVtransfers
p962
aVcling
p963
aVplant
p964
aVsaint
p965
aVplans
p966
aVnotre
p967
aVtreatments
p968
aVentrepreneurship
p969
aVplane
p970
aVwaver
p971
aVwaves
p972
aVethics
p973
aVrefuse
p974
aVregister
p975
aVfamily\u2019s
p976
aVfundamental
p977
aVgranted
p978
aVmexican
p979
aVtrade
p980
aVattitude
p981
aVpaper
p982
aVscott
p983
aVsigns
p984
aVsmiling
p985
aVits
p986
aVroots
p987
aVrapidly
p988
aVdeeds
p989
aVthey\u2019ll
p990
aVally
p991
aVcolleague
p992
aVtyrants
p993
aVseverely
p994
aVpropose
p995
aVdocument
p996
aValways
p997
aVtruths
p998
aVcourses
p999
aVfloors
p1000
aVwho\u2019s
p1001
aVfound
p1002
aVstatus
p1003
aVreduce
p1004
aVoperation
p1005
aVreally
p1006
aVrepressive
p1007
aVanxious
p1008
aVmissed
p1009
aVblacks
p1010
aVhostage
p1011
aVresearch
p1012
aVftc
p1013
aVworld-class
p1014
aVplotting
p1015
aVbelief
p1016
aVrisen
p1017
aVsparked
p1018
aVqualify
p1019
aVimagine
p1020
aVrises
p1021
aVdriven
p1022
aVowners
p1023
aVtestament
p1024
aVrooted
p1025
aVnumber
p1026
aVpreservation
p1027
aVsequester
p1028
aVprotectionism
p1029
aVguess
p1030
aVfuller
p1031
aVjew
p1032
aVjet
p1033
aVintroduction
p1034
aVarlington
p1035
aVthreatening
p1036
aVhallowed
p1037
aVsmile
p1038
aVrelationship
p1039
aVlonging
p1040
aVimmediate
p1041
aVappreciation
p1042
aVtyphoon
p1043
aVconsult
p1044
aVfocusing
p1045
aVtheater
p1046
aV2012.
p1047
aVstifle
p1048
aVgrace
p1049
aVobama
p1050
aViranian
p1051
aVcondolences
p1052
aVdetermined
p1053
aVmarriage
p1054
aVfishermen
p1055
aVfights
p1056
aVsell
p1057
aVdestabilizing
p1058
aVvulnerabilities
p1059
aVreliance
p1060
aValso
p1061
aVrecognizing
p1062
aVimmeasurable
p1063
aVplay
p1064
aVfirsthand
p1065
aVswiftly
p1066
aVplan
p1067
aVaccepting
p1068
aVunderstands
p1069
aVomaha
p1070
aVseize
p1071
aVsometimes
p1072
aVcover
p1073
aVintention
p1074
aVresearchers
p1075
aVbarrel
p1076
aVcharged
p1077
aVgold
p1078
aVdefended
p1079
aVsession
p1080
aVoccupation
p1081
aVimpact
p1082
aVstevens
p1083
aVfailed
p1084
aVfactor
p1085
aVcuba
p1086
aVindifference
p1087
aVgiants
p1088
aVafrican-americans
p1089
aVdependent
p1090
aVbanned
p1091
aVpreparing
p1092
aVclosely
p1093
aVcompass
p1094
aVsunni
p1095
aVenemy
p1096
aVprogressive
p1097
aVcry
p1098
aVwell-off
p1099
aVbanking
p1100
aVobscure
p1101
aVriver
p1102
aVapproaching
p1103
aVkalamazoo
p1104
aVset
p1105
aVcreator
p1106
aVcarrying
p1107
aVactivists
p1108
aVstartup
p1109
aVcollectively
p1110
aVsee
p1111
aVsea
p1112
aVknees
p1113
aVunsettling
p1114
aVcurrently
p1115
aVrejecting
p1116
aVthrive
p1117
aVavailable
p1118
aVhardship
p1119
aVtargeted
p1120
aVuntouched
p1121
aVincident
p1122
aVdeath
p1123
aVempowering
p1124
aVprospects
p1125
aVlast
p1126
aVconnection
p1127
aVimproves
p1128
aVlong-term
p1129
aVpoverty
p1130
aVwhole
p1131
aVloan
p1132
aVallegiance
p1133
aVleon
p1134
aVcoincidence
p1135
aVagents
p1136
aVchurch
p1137
aVimprovement
p1138
aVbelt
p1139
aVmonthly
p1140
aVhitting
p1141
aVextreme
p1142
aVlord\u2019s
p1143
aVfirm
p1144
aVraced
p1145
aVchampion
p1146
aVsilenced
p1147
aVfire
p1148
aVwheeler
p1149
aVfund
p1150
aVraces
p1151
aVsleeves
p1152
aVrepresentative
p1153
aVsystematic
p1154
aVtowns
p1155
aVuncertain
p1156
aVjudicial
p1157
aVenrollment
p1158
aVexpanded
p1159
aVbudget
p1160
aVadmire
p1161
aVtechnical
p1162
aVerror
p1163
aVday\u2019s
p1164
aVgovernment\u2019s
p1165
aVowed
p1166
aVhoping
p1167
aVbinding
p1168
aValaska
p1169
aVtriple
p1170
aVthrown
p1171
aVchase
p1172
aVfunny
p1173
aVshorter
p1174
aVread
p1175
aVvirtually
p1176
aVbethesda
p1177
aVdelhi
p1178
aVd.c.
p1179
aVcomprehensive
p1180
aVlevels
p1181
aVmedicaid
p1182
aVnecessity
p1183
aVcalloused
p1184
aVstack
p1185
aVrecent
p1186
aVimmigrant
p1187
aVconcrete
p1188
aVobserved
p1189
aVglitches
p1190
aVunto
p1191
aVdefenders
p1192
aVconclusions
p1193
aVbrigade
p1194
aVsignals
p1195
aVparents
p1196
aVhomeland
p1197
aVsurprised
p1198
aVindonesian
p1199
aVaustralia
p1200
aVvictims
p1201
aVemergency
p1202
aVdemands
p1203
aVcouple
p1204
aVwives
p1205
aVsuffering
p1206
aVquest
p1207
aVentrenched
p1208
aVprojects
p1209
aVformal
p1210
aVimposed
p1211
aVconsensus
p1212
aVcommunications
p1213
aVcontinue
p1214
aVtribes
p1215
aVdisorder
p1216
aVsuppliers
p1217
aVnames
p1218
aVmethods
p1219
aVsenate
p1220
aVspring
p1221
aVbounce
p1222
aVmighty
p1223
aVsight
p1224
aVcurious
p1225
aVsufficient
p1226
aVcommitting
p1227
aVbroadband
p1228
aVreligion
p1229
aVprosecuted
p1230
aVdating
p1231
aVbe
p1232
aVobject
p1233
aVagreement
p1234
aVbp
p1235
aVby
p1236
aVanything
p1237
aVdeserves
p1238
aVillegal
p1239
aVflying
p1240
aVrepair
p1241
aVclinton
p1242
aVterrorists
p1243
aVhometown
p1244
aVinto
p1245
aVosama
p1246
aVappropriate
p1247
aVcontroversies
p1248
aVprimarily
p1249
aVspan
p1250
aVharnessed
p1251
aVspending
p1252
aVspecifically
p1253
aV:
aVopens
p1254
aVchu
p1255
aVblueprint
p1256
aVelsewhere
p1257
aVcapability
p1258
aVpastor
p1259
aVdeductions
p1260
aVatlantic
p1261
aVpacific
p1262
aVline
p1263
aVdoubling
p1264
aVcia
p1265
aVup
p1266
aVus
p1267
aVslander
p1268
aVconsumed
p1269
aVreconcile
p1270
aVdefined
p1271
aVlikewise
p1272
aVdeadliest
p1273
aVe-mails
p1274
aVdiverse
p1275
aVdefines
p1276
aVuranium
p1277
aVpreventing
p1278
aVpoints
p1279
aVoutsourced
p1280
aVelements
p1281
aVprosecution
p1282
aVpassions
p1283
aVsuppression
p1284
aVsides
p1285
aVfighter
p1286
aVconsumer
p1287
aVage
p1288
aVwalked
p1289
aVwomen\u2019s
p1290
aVsummit
p1291
aVenrolled
p1292
aVfresh
p1293
aVhello
p1294
aVcode
p1295
aVscratch
p1296
aVbroaden
p1297
aVresults
p1298
aVastronauts
p1299
aVexisting
p1300
aVhighways
p1301
aVunmatched
p1302
aVbroader
p1303
aVcenters
p1304
aVtearing
p1305
aVlongstanding
p1306
aVturkish
p1307
aVconcerned
p1308
aVyoung
p1309
aVsend
p1310
aVhiv/aids
p1311
aVresources
p1312
aVgarden
p1313
aVtorture
p1314
aVcontinues
p1315
aVcontinued
p1316
aVwipe
p1317
aVcategories
p1318
aVtimely
p1319
aVmagic
p1320
aVfewer
p1321
aVtry
p1322
aVrace
p1323
aVpledge
p1324
aVrecruitment
p1325
aVvideo
p1326
aVlicenses
p1327
aVgraduating
p1328
aVdirective
p1329
aVexpressed
p1330
aVconsistently
p1331
aVindian
p1332
aVflowing
p1333
aVerbil
p1334
aVfirms
p1335
aVproliferation
p1336
aVled
p1337
aVlee
p1338
aVleg
p1339
aVgathered
p1340
aVcnn
p1341
aVdelivering
p1342
aVlet
p1343
aVlew
p1344
aVconsideration
p1345
aVinvented
p1346
aVfifteen
p1347
aVgreat
p1348
aVengage
p1349
aVreceive
p1350
aVinvolved
p1351
aVrohingya
p1352
aVsurvey
p1353
aVdefeat
p1354
aVopinion
p1355
aVresidents
p1356
aVmakes
p1357
aVinvolves
p1358
aVoutcomes
p1359
aVassemble
p1360
aVperfecting
p1361
aVexcesses
p1362
aVtools
p1363
aVbent
p1364
aVstanding
p1365
aVconfidence
p1366
aVcertificate
p1367
aVministers
p1368
aVnext
p1369
aVdoubt
p1370
aVbonds
p1371
aVmorehouse
p1372
aVpatrol
p1373
aVoccurred
p1374
aVintegrate
p1375
aVopposing
p1376
aVbaby
p1377
aVgladly
p1378
aVcharity
p1379
aVpracticing
p1380
aVintegrating
p1381
aVthis
p1382
aVchallenge
p1383
aVinsists
p1384
aVdrill
p1385
aVfulfill
p1386
aVbend
p1387
aVwedge
p1388
aVweaker
p1389
aVprocess
p1390
aVlock
p1391
aVpurposes
p1392
aVpieces
p1393
aVhigh
p1394
aVqur\u2019an
p1395
aVweaken
p1396
aVeducational
p1397
aVdestroying
p1398
aVdelay
p1399
aVescalating
p1400
aVva.
p1401
aVblocks
p1402
aVsingular
p1403
aVmalware
p1404
aVtied
p1405
aVhalted
p1406
aVfits
p1407
aVties
p1408
aVsolidarity
p1409
aVrealized
p1410
aVcounter
p1411
aVelement
p1412
aVwrit
p1413
aVnancy
p1414
aVvolunteers
p1415
aVcounted
p1416
aVmove
p1417
aVdoubtful
p1418
aVproduced
p1419
aVwarren
p1420
aVperfect
p1421
aV\u201ci\u2019m
p1422
aVcouldn\u2019t
p1423
aVlamp
p1424
aVrelish
p1425
aVmeantime
p1426
aVdegrees
p1427
aVstalled
p1428
aVinstruments
p1429
aV2014
p1430
aV2011
p1431
aV2010
p1432
aV2012
p1433
aVphysicians
p1434
aVprosper
p1435
aVoutlined
p1436
aVmassachusetts
p1437
aVdisrupted
p1438
aVrealize
p1439
aVpresidential
p1440
aVgeneration\u2019s
p1441
aVtruth
p1442
aVshortage
p1443
aVbeneath
p1444
aVdoing
p1445
aVgary
p1446
aVsociety
p1447
aVbooks
p1448
aVqaida
p1449
aVagriculture
p1450
aVwitness
p1451
aVfundamentally
p1452
aV'
aVdominated
p1453
aVarchitecture
p1454
aVshut
p1455
aVregulators
p1456
aVsurely
p1457
aVcutting-edge
p1458
aVregulatory
p1459
aVtribal
p1460
aVspill
p1461
aVgallons
p1462
aVcould
p1463
aVscars
p1464
aVdavid
p1465
aVremoving
p1466
aVdavis
p1467
aVhussein
p1468
aVreceding
p1469
aVscare
p1470
aVowned
p1471
aVnpt
p1472
aVowner
p1473
aVblows
p1474
aVlegislative
p1475
aVstart
p1476
aVsystem
p1477
aVinalienable
p1478
aVpainful
p1479
aVinterests
p1480
aVenforcement
p1481
aVvigorous
p1482
aVstars
p1483
aVamsterdam
p1484
aVbeatings
p1485
aVcultures
p1486
aVhaven
p1487
aVsteel
p1488
aVcolleagues
p1489
aVwarfare
p1490
aVextraordinarily
p1491
aVpsalm
p1492
aViran\u2019s
p1493
aVmalpractice
p1494
aVbriefing
p1495
aVsteep
p1496
aVdevotion
p1497
aVhatreds
p1498
aVfalse
p1499
aVfaith-based
p1500
aVpartnership
p1501
aVtonight
p1502
aVdefending
p1503
aVclearly
p1504
aVviewed
p1505
aVdocuments
p1506
aVstudying
p1507
aVmills
p1508
aVmechanism
p1509
aVjersey
p1510
aVashore
p1511
aVkorean
p1512
aVlatino
p1513
aVpersistence
p1514
aVsoar
p1515
aVworldwide
p1516
aVallow
p1517
aVdelayed
p1518
aVvisa
p1519
aVplus
p1520
aVlobby
p1521
aVmedal
p1522
aVso-called
p1523
aVsweeping
p1524
aVstronger
p1525
aVenlist
p1526
aVwounded
p1527
aVfact
p1528
aVcease-fire
p1529
aVatmosphere
p1530
aVirs
p1531
aVbring
p1532
aVrough
p1533
aVtrivial
p1534
aVbrink
p1535
aVdecade
p1536
aVprincipal
p1537
aVpause
p1538
aVjay
p1539
aVchampioned
p1540
aVit\u2019s
p1541
aVshould
p1542
aVtape
p1543
aVconfederate
p1544
aVsecretaries
p1545
aVhope
p1546
aVmeant
p1547
aVjumpstart
p1548
aVinsight
p1549
aVadvisory
p1550
aVlistened
p1551
aVmeans
p1552
aVfamiliar
p1553
aVlucky
p1554
aVexchanges
p1555
aVshaping
p1556
aVhoses
p1557
aVcommittees
p1558
aVcreed
p1559
aVtaxes
p1560
aVsummon
p1561
aVreid
p1562
aVextremists
p1563
aVstuff
p1564
aVohio
p1565
aVrein
p1566
aVoccupy
p1567
aVtemporarily
p1568
aVcatastrophic
p1569
aVqaddafi
p1570
aVwire
p1571
aVdestiny
p1572
aVnuclear
p1573
aVpartisan
p1574
aVmetadata
p1575
aVinjustice
p1576
aVreauthorization
p1577
aVends
p1578
aVexplosive
p1579
aVstrides
p1580
aVunaffordable
p1581
aVmarty
p1582
aVrestrictions
p1583
aVfigured
p1584
aVdrum
p1585
aVinvited
p1586
aVramp
p1587
aVdeficits
p1588
aVdrug
p1589
aVchosen
p1590
aVconclude
p1591
aVca
p1592
aVwinning
p1593
aV600
p1594
aVtrajectory
p1595
aVpoured
p1596
aV\u201cyou
p1597
aVwaste
p1598
aVlouisiana
p1599
aVtrinity
p1600
aVresort
p1601
aVhateful
p1602
aVatlanta
p1603
aVbubbles
p1604
aVdiscoveries
p1605
aVva
p1606
aVripe
p1607
aVsite
p1608
aVhardware
p1609
aVoptimistic
p1610
aVsits
p1611
aVdenial
p1612
aVpainstaking
p1613
aVterrorism
p1614
aVunimaginable
p1615
aVball
p1616
aVbali
p1617
aVdrink
p1618
aVupon
p1619
aVdust
p1620
aVafghan
p1621
aVexpand
p1622
aVoff
p1623
aVindonesia
p1624
aVpatterns
p1625
aVjessica
p1626
aVcommand
p1627
aVhard-fought
p1628
aVdrawing
p1629
aVnewest
p1630
aVless
p1631
aVmoments
p1632
aVgun
p1633
aVrooms
p1634
aVday-to-day
p1635
aVpaul
p1636
aVweb
p1637
aVgenerous
p1638
aVtransparent
p1639
aVarrest
p1640
aVcombine
p1641
aVexempt
p1642
aVirresponsible
p1643
aVinnocents
p1644
aVincreased
p1645
aVgovernment
p1646
aVchancellor
p1647
aVfamously
p1648
aVhaul
p1649
aVfive
p1650
aVdesk
p1651
aVwheel
p1652
aVcrist
p1653
aVchairs
p1654
aVbigotry
p1655
aVwar-torn
p1656
aVbecome
p1657
aVamendment
p1658
aVsurest
p1659
aVgrids
p1660
aVdaylight
p1661
aVchoosing
p1662
aVballot
p1663
aVrecognition
p1664
aVlibyans
p1665
aVliterally
p1666
aVavoid
p1667
aVseparate
p1668
aVsalaries
p1669
aVanti-semitism
p1670
aVpassion
p1671
aVout-compete
p1672
aVrobots
p1673
aVpressure
p1674
aVposterity
p1675
aVloans
p1676
aVstage
p1677
aVgained
p1678
aVsister
p1679
aVasks
p1680
aVseeds
p1681
aVsoftware
p1682
aVburma
p1683
aValliance
p1684
aVletters
p1685
aVsuited
p1686
aV\u201cto
p1687
aVcommitment
p1688
aVassess
p1689
aVroads
p1690
aVmere
p1691
aVhousing
p1692
aVfrustration
p1693
aVnaturally
p1694
aVfunction
p1695
aVfiscal
p1696
aVcomplacency
p1697
aVdelivery
p1698
aVconstruction
p1699
aVnewtown
p1700
aVdelivers
p1701
aVapplause
p1702
aVcount
p1703
aVbaptist
p1704
aVplaces
p1705
aVofficial
p1706
aVsmooth
p1707
aVplaced
p1708
aVconvince
p1709
aVmonument
p1710
aVproblem
p1711
aVbearing
p1712
aVirish
p1713
aVrightly
p1714
aVnurses
p1715
aVrecognize
p1716
aVcontribute
p1717
aVrubble
p1718
aVslowing
p1719
aVcompared
p1720
aVtrials
p1721
aVlately
p1722
aVdetails
p1723
aVillusion
p1724
aVoutlines
p1725
aVrepeat
p1726
aVmonday
p1727
aVoppression
p1728
aVmissouri
p1729
aVdismantle
p1730
aVchance
p1731
aVwrenching
p1732
aVrepeal
p1733
aVinspiration
p1734
aVtomorrow\u2019s
p1735
aVcruz
p1736
aVrule
p1737
aVlift
p1738
aVcompete
p1739
aVpension
p1740
aVrural
p1741
aVsaves
p1742
aVcontroversial
p1743
aVaviation
p1744
aVoldest
p1745
aVintegrity
p1746
aVrelationships
p1747
aVvotes
p1748
aVedward
p1749
aVvoted
p1750
aVworth
p1751
aVcompassion
p1752
aVdistort
p1753
aV\u2013-
p1754
aVtickets
p1755
aVrelentlessly
p1756
aVannounced
p1757
aValarm
p1758
aVtriumph
p1759
aVrouhani
p1760
aV\u201cit
p1761
aVpragmatic
p1762
aV\u201cis
p1763
aVphones
p1764
aV\u201cif
p1765
aVrigorous
p1766
aV\u201cin
p1767
aVcolonialism
p1768
aVtolu
p1769
aVabove
p1770
aVtoll
p1771
aVchurches
p1772
aVtold
p1773
aVredeploy
p1774
aVprotection
p1775
aVpursuit
p1776
aVcelebration
p1777
aVdaughter
p1778
aVstudy
p1779
aVenvoy
p1780
aVanchor
p1781
aVrefocus
p1782
aVsecure
p1783
aVsearch
p1784
aVhighly
p1785
aVthursday
p1786
aVachievable
p1787
aVtotal
p1788
aVplot
p1789
aVpatchwork
p1790
aVpalestinian
p1791
aVindians
p1792
aVnegative
p1793
aVinsult
p1794
aV1930s
p1795
aVseriously
p1796
aVindiana
p1797
aVadministering
p1798
aVgiovanni
p1799
aVaward
p1800
aVaware
p1801
aVbackwards
p1802
aVwe\u2019ll
p1803
aVharnessing
p1804
aVwore
p1805
aVwork
p1806
aVworn
p1807
aVera
p1808
aVindicated
p1809
aVindia
p1810
aVindicates
p1811
aVking\u2019s
p1812
aVtornadoes
p1813
aVrecovery
p1814
aVprovide
p1815
aVverify
p1816
aVegyptian
p1817
aVrecovers
p1818
aVfar
p1819
aVboats
p1820
aVordinary
p1821
aVbeach
p1822
aVoffshore
p1823
aVtransforming
p1824
aVladder
p1825
aVafter
p1826
aVdamaged
p1827
aVlab
p1828
aVcustoms
p1829
aVtackle
p1830
aVlay
p1831
aVlaw
p1832
aVmeaningful
p1833
aVlas
p1834
aVhomeowners
p1835
aVappreciate
p1836
aVgreen
p1837
aVfan
p1838
aVorder
p1839
aVgreed
p1840
aVoffice
p1841
aVdevote
p1842
aVconsent
p1843
aVvishal
p1844
aVsatisfied
p1845
aVinnovative
p1846
aVjapan
p1847
aVmayor
p1848
aVbombing
p1849
aVsomewhere
p1850
aV50,000
p1851
aVproduction
p1852
aVvalor
p1853
aVversus
p1854
aVthen
p1855
aVthem
p1856
aVaffected
p1857
aVsafe
p1858
aVbreak
p1859
aVband
p1860
aVheaven
p1861
aVthey
p1862
aVbank
p1863
aVclassified
p1864
aVbackgrounds
p1865
aVrocks
p1866
aVimprovements
p1867
aVreasonable
p1868
aVlifted
p1869
aVmeets
p1870
aVcrimes
p1871
aVhosted
p1872
aVnetwork
p1873
aVcameras
p1874
aVmonitor
p1875
aVvessels
p1876
aVstrangers
p1877
aVfellowship
p1878
aVdaniel
p1879
aVinstill
p1880
aVmedicine
p1881
aVforth
p1882
aVdisagreements
p1883
aVoccurs
p1884
aVbarrier
p1885
aVveto
p1886
aVstandard
p1887
aVappointments
p1888
aVdisputes
p1889
aVvets
p1890
aVvolatile
p1891
aVrecovering
p1892
aVcreated
p1893
aVcreates
p1894
aVrenew
p1895
aVoppose
p1896
aVorganize
p1897
aVdaunting
p1898
aVsentence
p1899
aVrailroads
p1900
aVanother
p1901
aVdrones
p1902
aVrats
p1903
aVelectronic
p1904
aVescalation
p1905
aVcompromise
p1906
aVjohn
p1907
aVsergeant
p1908
aVgrandchildren
p1909
aVrejected
p1910
aVwasted
p1911
aVmercy
p1912
aVtarget
p1913
aVseated
p1914
aV99
p1915
aVbinds
p1916
aViron
p1917
aVpowers
p1918
aVd-day
p1919
aVpervasive
p1920
aVrespecting
p1921
aVnavigate
p1922
aV500,000
p1923
aVsportsmen
p1924
aVmanner
p1925
aVstomach
p1926
aVforced
p1927
aVstrength
p1928
aVgenuine
p1929
aVwiden
p1930
aVladen
p1931
aVself-defense
p1932
aVmaterials
p1933
aVluxury
p1934
aVforces
p1935
aVnobody
p1936
aVchildren\u2019s
p1937
aVextending
p1938
aVgermany
p1939
aVphase
p1940
aVgermans
p1941
aVneighborhoods
p1942
aValumni
p1943
aVyours
p1944
aVsun
p1945
aVvoting
p1946
aVnotion
p1947
aVreserve
p1948
aVmechanisms
p1949
aVlewis
p1950
aVanniversary
p1951
aVreligions
p1952
aVcuban
p1953
aVnephew
p1954
aVenjoyed
p1955
aVtoast
p1956
aVpainfully
p1957
aVnike
p1958
aVimplementation
p1959
aVguidance
p1960
aVdeepest
p1961
aVpursuing
p1962
aVpredecessor
p1963
aVdo
p1964
aVruns
p1965
aVcovering
p1966
aVunshakeable
p1967
aVinsurgents
p1968
aVsteal
p1969
aVsecretary
p1970
aVcaptures
p1971
aVtriumphed
p1972
aVw.
p1973
aVdepends
p1974
aVdiscussions
p1975
aVtechniques
p1976
aVdraws
p1977
aVmitch
p1978
aVaway
p1979
aVunable
p1980
aVcooperation
p1981
aVdrawn
p1982
aVmisguided
p1983
aVfailings
p1984
aVwe
p1985
aVterms
p1986
aVwo
p1987
aVhandful
p1988
aVgays
p1989
aVunfold
p1990
aVkitchen
p1991
aVreceived
p1992
aVclimate
p1993
aVill
p1994
aVbrad
p1995
aVpeacefully
p1996
aVtough
p1997
aVwider
p1998
aVresignation
p1999
aVspeak
p2000
aVgratitude
p2001
aVbroadening
p2002
aVcory
p2003
aViraq
p2004
aVengines
p2005
aVflexible
p2006
aVdozens
p2007
aVfamilies
p2008
aVbeloved
p2009
aVattacked
p2010
aVgracious
p2011
aVapplied
p2012
aVphysician
p2013
aVeast
p2014
aVahead
p2015
aVpublicly
p2016
aVair
p2017
aVaim
p2018
aVinformation
p2019
aVapplies
p2020
aVaid
p2021
aVaig
p2022
aVvoice
p2023
aVlaunched
p2024
aVperform
p2025
aVgrapple
p2026
aVconvictions
p2027
aVindependent
p2028
aVfuss
p2029
aVsaddam
p2030
aVdisagreement
p2031
aVhang
p2032
aVlyndon
p2033
aVhand
p2034
aVliberties
p2035
aVfaiths
p2036
aVblamed
p2037
aVkept
p2038
aVhumble
p2039
aVhispanic
p2040
aVcontact
p2041
aVthe
p2042
aVcamps
p2043
aVunified
p2044
aVtraditions
p2045
aVquoted
p2046
aVphoto
p2047
aVthanks
p2048
aVvictim
p2049
aV50th
p2050
aVadding
p2051
aVunique
p2052
aVhills
p2053
aVwright
p2054
aVshout
p2055
aVspread
p2056
aVtransformed
p2057
aVboard
p2058
aV2007.
p2059
aVrighteous
p2060
aVemphasis
p2061
aVgregg
p2062
aVweek\u2019s
p2063
aVcaps
p2064
aVarab
p2065
aVcape
p2066
aVretreat
p2067
aVdisadvantage
p2068
aVsecurities
p2069
aVgandhi
p2070
aVnight
p2071
aVsecurity
p2072
aVtoughest
p2073
aVhonored
p2074
aVkorea
p2075
aVsends
p2076
aVborn
p2077
aVbore
p2078
aVconfusing
p2079
aVcongratulate
p2080
aVhumor
p2081
aVcomments
p2082
aVasking
p2083
aVdenied
p2084
aVparticipation
p2085
aVpose
p2086
aVgraduates
p2087
aVgraduated
p2088
aVpost
p2089
aVtheirs
p2090
aVnewspapers
p2091
aVmonths
p2092
aVhorizon
p2093
aVcherish
p2094
aVpays
p2095
aVprisoners
p2096
aVprofession
p2097
aVbound
p2098
aVbalances
p2099
aVbalanced
p2100
aVamidst
p2101
aVlegislation
p2102
aVsovereign
p2103
aVfight
p2104
aVway
p2105
aV150,000
p2106
aVwas
p2107
aVwar
p2108
aVlowest
p2109
aVi\u2019ll
p2110
aVbecoming
p2111
aVpeninsula
p2112
aVdead
p2113
aVtrue
p2114
aVabsent
p2115
aVresponding
p2116
aVhigh-quality
p2117
aVmarkets
p2118
aVmaximum
p2119
aVbraved
p2120
aVgenerosity
p2121
aVsunnis
p2122
aVwhat\u2019s
p2123
aVanew
p2124
aVemotional
p2125
aVisil
p2126
aVprayed
p2127
aVpromises
p2128
aVfrederick
p2129
aVabstract
p2130
aVevidence
p2131
aVharm\u2019s
p2132
aVpromised
p2133
aVprayer
p2134
aVface
p2135
aVweakened
p2136
aVstake
p2137
aVreality
p2138
aVnegotiators
p2139
aVinterested
p2140
aVholding
p2141
aVtest
p2142
aVunwilling
p2143
aVshrink
p2144
aVtess
p2145
aVbrothers
p2146
aVwelcome
p2147
aVupdate
p2148
aVworkers\u2019
p2149
aVscores
p2150
aVacted
p2151
aVdomination
p2152
aVtogether
p2153
aVloyal
p2154
aVsongs
p2155
aVconcept
p2156
aVbroke
p2157
aVdiplomacy
p2158
aVglobal
p2159
aVgrateful
p2160
aVbattle
p2161
aVcreative
p2162
aVsuperpower
p2163
aVidealism
p2164
aVrepression
p2165
aVcertainly
p2166
aVkillings
p2167
aVzone
p2168
aVhonoring
p2169
aVobamacare
p2170
aVpermanently
p2171
aVterror
p2172
aVprotestors
p2173
aVbrown
p2174
aVsupported
p2175
aVtrouble
p2176
aVresponders
p2177
aVaggressively
p2178
aVslip
p2179
aVpresented
p2180
aVturns
p2181
aVfragile
p2182
aVgut
p2183
aVguy
p2184
aVupper
p2185
aVrevolution
p2186
aVregret
p2187
aVdiscover
p2188
aVprofessionalism
p2189
aVcost
p2190
aVforging
p2191
aVcuba\u2019s
p2192
aVcargo
p2193
aVappear
p2194
aVassistance
p2195
aVshares
p2196
aVuniform
p2197
aVshared
p2198
aVappeal
p2199
aVsupporting
p2200
aVexplosion
p2201
aVmuslim
p2202
aVdemonizing
p2203
aVroaring
p2204
aVteaches
p2205
aVteacher
p2206
aVchange
p2207
aVsending
p2208
aVflames
p2209
aVdempsey
p2210
aVtrial
p2211
aVfranklin
p2212
aVusually
p2213
aVplotted
p2214
aVchurchill
p2215
aVregardless
p2216
aVextra
p2217
aVlending
p2218
aVmarked
p2219
aVfbi
p2220
aVrarely
p2221
aVmarket
p2222
aVremaking
p2223
aVprove
p2224
aVinterim
p2225
aVlive
p2226
aVtowers
p2227
aVenvelope
p2228
aVinvestigation
p2229
aVorganizations
p2230
aVpushed
p2231
aVcar
p2232
aVcap
p2233
aVmayors
p2234
aVhardest
p2235
aVincidents
p2236
aVcan
p2237
aVbreeds
p2238
aVheart
p2239
aVdedicated
p2240
aVexpanding
p2241
aVchip
p2242
aVthere\u2019s
p2243
aVtopic
p2244
aVheard
p2245
aVo
aVhandle
p2246
aVrisk-taking
p2247
aVunwavering
p2248
aVproductive
p2249
aVbankrupt
p2250
aVfortunately
p2251
aVdiscussion
p2252
aVspreads
p2253
aVgiveaways
p2254
aVfreezer
p2255
aVwrite
p2256
aVnowhere
p2257
aVeconomy
p2258
aVarmies
p2259
aVproduct
p2260
aV700,000
p2261
aVsacrifice
p2262
aVsouthern
p2263
aVbrazen
p2264
aVproduce
p2265
aVbear
p2266
aVislands
p2267
aVheroes
p2268
aVnomination
p2269
aV\u201cfor
p2270
aVlifting
p2271
aVgoal
p2272
aVremember
p2273
aVwhenever
p2274
aVfutures
p2275
aVtypical
p2276
aVembassies
p2277
aVserving
p2278
aVforeclosure
p2279
aVindeed
p2280
aVconsulting
p2281
aVshouldn\u2019t
p2282
aVbrain
p2283
aVdisparities
p2284
aVcold
p2285
aVstill
p2286
aVethic
p2287
aVacknowledge
p2288
aVbirthdays
p2289
aVforms
p2290
aVwindow
p2291
aVhalt
p2292
aV100,000
p2293
aVintroduce
p2294
aVtaliban
p2295
aVwealthy
p2296
aVnot
p2297
aVnow
p2298
aVprovision
p2299
aVdiscuss
p2300
aVnor
p2301
aVenacted
p2302
aVservant
p2303
aVjanuary
p2304
aVdrop
p2305
aVentirely
p2306
aVcliffs
p2307
aVel
p2308
aVfired
p2309
aVchallenged
p2310
aVed
p2311
aVdirecting
p2312
aVyeah
p2313
aVchallenges
p2314
aVfires
p2315
aVyear
p2316
aVhappen
p2317
aVcalling
p2318
aVshown
p2319
aVaccomplish
p2320
aVopened
p2321
aVspace
p2322
aVirony
p2323
aVthirst
p2324
aVincrease
p2325
aVrational
p2326
aVreceiving
p2327
aVviable
p2328
aVshows
p2329
aVinevitably
p2330
aVdefenses
p2331
aVcars
p2332
aVcarl
p2333
aVobligation
p2334
aVmarine
p2335
aVinevitable
p2336
aVcard
p2337
aVcare
p2338
aVmilestones
p2339
aVtransition
p2340
aVbritish
p2341
aVhonest
p2342
aVpromotion
p2343
aVblind
p2344
aVbenefited
p2345
aVstrengthened
p2346
aVyourself
p2347
aVdirectly
p2348
aVimpossible
p2349
aVmessage
p2350
aVdrove
p2351
aVtomorrow
p2352
aVsize
p2353
aVsheer
p2354
aVofficials
p2355
aVsilent
p2356
aVcaught
p2357
aVreinvestment
p2358
aVhouseholds
p2359
aVtragic
p2360
aVsubsidizing
p2361
aVfriend
p2362
aVmostly
p2363
aVthat
p2364
aVpittsburgh
p2365
aVthad
p2366
aVtehran
p2367
aVeliminated
p2368
aVthan
p2369
aVprofessionals
p2370
aVrugged
p2371
aVtangible
p2372
aVrecruit
p2373
aVoptimism
p2374
aVmonopolies
p2375
aVfruits
p2376
aVstart-ups
p2377
aVcontentious
p2378
aVinvestors
p2379
aVremained
p2380
aVcraig
p2381
aVdistorted
p2382
aVanger
p2383
aVbreakfast
p2384
aVrecover
p2385
aVoffering
p2386
aVveteran
p2387
aVmanufacturers
p2388
aVterrific
p2389
aVequipment
p2390
aVmr.
p2391
aVonline
p2392
aVobjective
p2393
aVbegin
p2394
aVprice
p2395
aVmammograms
p2396
aVimportantly
p2397
aVrationale
p2398
aVsuccessive
p2399
aVfoothold
p2400
aV]
aVmichelle
p2401
aVforever
p2402
aVegg
p2403
aVsteady
p2404
aVhemisphere
p2405
aVslaves
p2406
aVprofessional
p2407
aVabraham
p2408
aVgerman
p2409
aVfifty
p2410
aVdiscovered
p2411
aVfifth
p2412
aVground
p2413
aVupgrade
p2414
aVlibya\u2019s
p2415
aVtitle
p2416
aVproclamation
p2417
aVproportion
p2418
aVatrocities
p2419
aVonly
p2420
aVenriched
p2421
aVessence
p2422
aVdegrade
p2423
aVtruly
p2424
aVbaghdad
p2425
aVgranholm
p2426
aVcelebrate
p2427
aVhomegrown
p2428
aVkathleen
p2429
aVpeople\u2019s
p2430
aVamanda
p2431
aVhusband
p2432
aVconcert
p2433
aVkapaun
p2434
aVburst
p2435
aVstatistic
p2436
aVanchored
p2437
aVelected
p2438
aVactively
p2439
aVsport
p2440
aVconcern
p2441
aVisraeli
p2442
aVtackling
p2443
aVjustifies
p2444
aV3
aVladin
p2445
aVbetween
p2446
aVjustified
p2447
aVnotice
p2448
aVblame
p2449
aVhurts
p2450
aVarticle
p2451
aVtalented
p2452
aVimplementing
p2453
aVself-interest
p2454
aVcomes
p2455
aVnearby
p2456
aVpassenger
p2457
aVexploit
p2458
aVlearning
p2459
aVmoreover
p2460
aVcares
p2461
aVrebuild
p2462
aVinformed
p2463
aVterritorial
p2464
aVcared
p2465
aVgovernment-run
p2466
aVdangers
p2467
aVpartisanship
p2468
aVrebuilt
p2469
aVrecruiting
p2470
aVwounds
p2471
aVexternal
p2472
aVsuspected
p2473
aVrealities
p2474
aVcountless
p2475
aVdeveloping
p2476
aVthese
p2477
aVwealthiest
p2478
aVtransactions
p2479
aVjoke
p2480
aVorientation
p2481
aVsoil
p2482
aVcommander
p2483
aVbias
p2484
aVembrace
p2485
aVcommanded
p2486
aVproperty
p2487
aVworry
p2488
aVdevelop
p2489
aVmedia
p2490
aVgentlemen
p2491
aVceo
p2492
aVcoworkers
p2493
aVnoble
p2494
aVfinish
p2495
aVcenturies
p2496
aVclosest
p2497
aVarctic
p2498
aVrespected
p2499
aVtradition
p2500
aVbondage
p2501
aVcharges
p2502
aVconstitutional
p2503
aVcommissioners
p2504
aVsevere
p2505
aVcongressmen
p2506
aVcoordinate
p2507
aVotherwise
p2508
aVnation\u2019s
p2509
aVfester
p2510
aVexcel
p2511
aVvaluable
p2512
aVcommunities
p2513
aVcivilized
p2514
aVgreetings
p2515
aVtouch
p2516
aVspeed
p2517
aVrenewed
p2518
aVthinking
p2519
aVsenseless
p2520
aVtreatment
p2521
aVrole
p2522
aVstruck
p2523
aVinstructions
p2524
aVmomentum
p2525
aVreal
p2526
aVama
p2527
aVdisarmament
p2528
aVselma
p2529
aVearly
p2530
aVlistening
p2531
aVusing
p2532
aVlady
p2533
aVruled
p2534
aVfortune
p2535
aVmalaysian
p2536
aVcollective
p2537
aVgreeting
p2538
aVmiracle
p2539
aVbest-equipped
p2540
aVbenefit
p2541
aVexposed
p2542
aVtragedies
p2543
aVtrayvon
p2544
aVduration
p2545
aVintend
p2546
aVregina
p2547
aVfaction
p2548
aVrecorded
p2549
aVconservative
p2550
aVdeficit
p2551
aVarabia
p2552
aVassembly
p2553
aVbusiness
p2554
aVequivalent
p2555
aVstrained
p2556
aVtuition
p2557
aVcredits
p2558
aVexciting
p2559
aVthrow
p2560
aVcomparison
p2561
aVcentral
p2562
aVideology
p2563
aVboldly
p2564
aVmuslims
p2565
aVgreatly
p2566
aVtestimony
p2567
aVintent
p2568
aVprotests
p2569
aVinclusion
p2570
aVsudan
p2571
aVawlaki
p2572
aVpersecution
p2573
aVinvolvement
p2574
aVheated
p2575
aVwatchdog
p2576
aVshrinking
p2577
aVyour
p2578
aVintervention
p2579
aVprepare
p2580
aVarea
p2581
aVstark
p2582
aVlos
p2583
aVlow
p2584
aVlot
p2585
aVtransitioning
p2586
aVjones
p2587
aVanti-trafficking
p2588
aV\u201ca
p2589
aVtwo-thirds
p2590
aVtrying
p2591
aVgod-given
p2592
aVhire
p2593
aVfraud
p2594
aVembedded
p2595
aVstanford
p2596
aVdefault
p2597
aVresolving
p2598
aV\u201cthe
p2599
aV\u201ci
p2600
aVbeliefs
p2601
aVillnesses
p2602
aVinflict
p2603
aVarabs
p2604
aVdescribe
p2605
aVmoved
p2606
aVsales
p2607
aVmoves
p2608
aVhospitals
p2609
aVcredibility
p2610
aVyou
p2611
aVforcing
p2612
aVpoor
p2613
aVopen-ended
p2614
aVperils
p2615
aVosawatomie
p2616
aVcoverage
p2617
aVpelosi
p2618
aVpool
p2619
aVbuilding
p2620
aVmourned
p2621
aVcontrolled
p2622
aVrepay
p2623
aVstockpile
p2624
aVrestored
p2625
aVoverseas
p2626
aVjoins
p2627
aVsince
p2628
aVpointing
p2629
aVgroundwork
p2630
aVmonth
p2631
aVthoughtful
p2632
aVdeadline
p2633
aVmessy
p2634
aVreligious
p2635
aVchain
p2636
aVpledged
p2637
aVfoster
p2638
aVsafety
p2639
aVhomes
p2640
aVvery
p2641
aVhorror
p2642
aVsasha
p2643
aVbalancing
p2644
aVdecide
p2645
aV--
p2646
aVstreets
p2647
aVvalue
p2648
aVconscience
p2649
aVails
p2650
aVdarkness
p2651
aVconsumers
p2652
aVwitnessed
p2653
aVinvesting
p2654
aVemotions
p2655
aVlearned
p2656
aVmultinational
p2657
aVturmoil
p2658
aViran
p2659
aVrecruits
p2660
aVloose
p2661
aVanswers
p2662
aVtracks
p2663
aVexcess
p2664
aVstrong
p2665
aVconviction
p2666
aVinspired
p2667
aVlosses
p2668
aVsoldier
p2669
aVamount
p2670
aVinspires
p2671
aVcoastline
p2672
aVuniquely
p2673
aVfamily
p2674
aVpartnering
p2675
aVrequiring
p2676
aVask
p2677
aVaimed
p2678
aVtrained
p2679
aVconventional
p2680
aVflaws
p2681
aVtakes
p2682
aViraqi
p2683
aVcontains
p2684
aVcaptain
p2685
aVtaken
p2686
aVinjury
p2687
aVauthorization
p2688
aVlowering
p2689
aVerode
p2690
aVjr.
p2691
aVexcuse
p2692
aVimpulse
p2693
aVfactories
p2694
aVproducing
p2695
aVsovereignty
p2696
aVhelped
p2697
aVoversight
p2698
aVcoalition
p2699
aVnine
p2700
aVbudgets
p2701
aVyemen
p2702
aVhistory
p2703
aVpushes
p2704
aVboycott
p2705
aVf.
p2706
aVfirmly
p2707
aVcomfortable
p2708
aVstayed
p2709
aVreject
p2710
aVvigilance
p2711
aVtried
p2712
aVtries
p2713
aVterrorist
p2714
aVinvasion
p2715
aVa
aVcriticize
p2716
aVovernight
p2717
aVrenewing
p2718
aVbanks
p2719
aVdream
p2720
aVeron
p2721
aVhelp
p2722
aVsoon
p2723
aVheld
p2724
aVcommittee
p2725
aVcommitted
p2726
aVhell
p2727
aVtaxpayer
p2728
aVsolving
p2729
aVactually
p2730
aVabsence
p2731
aVsystems
p2732
aVradical
p2733
aVfounders
p2734
aVevening
p2735
aVfood
p2736
aVdemographics
p2737
aVarsenal
p2738
aVfoot
p2739
aVdesperately
p2740
aVimprisoned
p2741
aVfully
p2742
aVintervene
p2743
aVbless
p2744
aVstopped
p2745
aVapartheid
p2746
aVreferred
p2747
aVheavy
p2748
aVfees
p2749
aVbickering
p2750
aVtodd
p2751
aVinspections
p2752
aVbeyond
p2753
aVevent
p2754
aVmagnet
p2755
aVrobert
p2756
aVsurrounded
p2757
aVtight-knit
p2758
aVsustain
p2759
aV7
aVissue
p2760
aVreporting
p2761
aVearns
p2762
aVtimeline
p2763
aVusaid
p2764
aVlabs
p2765
aVhouses
p2766
aVreason
p2767
aVbase
p2768
aVbrightest
p2769
aVdire
p2770
aVput
p2771
aVearliest
p2772
aVheroic
p2773
aVrevolutionary
p2774
aVunresolved
p2775
aVlaunch
p2776
aVbroad-based
p2777
aVpersists
p2778
aV\u201cthere
p2779
aVterrible
p2780
aVamericas
p2781
aVcheering
p2782
aVamerican
p2783
aVexpecting
p2784
aVbusinessmen
p2785
aVsyria
p2786
aVinteract
p2787
aVpartnerships
p2788
aVconsultations
p2789
aVreflected
p2790
aVunaccompanied
p2791
aVunexpected
p2792
aVhangs
p2793
aVmiss
p2794
aVarbitration
p2795
aVhorse
p2796
aVother\u2019s
p2797
aVst.
p2798
aVlejeune
p2799
aVairborne
p2800
aVwonderful
p2801
aVhundred
p2802
aVshifted
p2803
aVselling
p2804
aVpassed
p2805
aVtrapped
p2806
aVjordan
p2807
aVnorms
p2808
aVfinancing
p2809
aVgrew
p2810
aVanticipate
p2811
aVtunis
p2812
aVstore
p2813
aVchild\u2019s
p2814
aVyou\u2019ve
p2815
aVheaviest
p2816
aVcomrades
p2817
aVsheet
p2818
aVconcentration
p2819
aVvulnerable
p2820
aVlie
p2821
aVofficers
p2822
aVlit
p2823
aVtowards
p2824
aVresurgence
p2825
aVquote
p2826
aVhired
p2827
aVexperiences
p2828
aVapproved
p2829
aVsalary
p2830
aVcreators
p2831
aVloopholes
p2832
aVsturdy
p2833
aVmobile
p2834
aVclear
p2835
aVgunman
p2836
aVclean
p2837
aVaxelrod
p2838
aVusual
p2839
aVperseverance
p2840
aVcelebrated
p2841
aVleague
p2842
aVmultilateral
p2843
aVwanat
p2844
aVnorthern
p2845
aVduncan
p2846
aVflights
p2847
aVpretty
p2848
aVhardened
p2849
aVcircle
p2850
aVreap
p2851
aVmeanwhile
p2852
aVfamous
p2853
aVfeels
p2854
aVcompeting
p2855
aVduring
p2856
aValexander
p2857
aVsacrificed
p2858
aVcelebrates
p2859
aVadhering
p2860
aVsacrifices
p2861
aVunderlying
p2862
aVabolitionists
p2863
aVrecommendations
p2864
aVpatriotism
p2865
aVthrowing
p2866
aVprague
p2867
aVculture
p2868
aVplummeted
p2869
aVclose
p2870
aVtaliban\u2019s
p2871
aVdeploying
p2872
aVmoratorium
p2873
aVpictures
p2874
aVchart
p2875
aVwon
p2876
aVprobably
p2877
aVconditions
p2878
aVmissing
p2879
aVoak
p2880
aVinvisible
p2881
aVabruptly
p2882
aVboth
p2883
aVtoward
p2884
aVminorities
p2885
aVliked
p2886
aVhackers
p2887
aVheaded
p2888
aVwhatever
p2889
aVunfolded
p2890
aVlikes
p2891
aValong
p2892
aVdescribed
p2893
aVinstilled
p2894
aVirresponsibility
p2895
aVdescribes
p2896
aVthreaten
p2897
aVterritory
p2898
aVempty
p2899
aVdame
p2900
aVgenerating
p2901
aValongside
p2902
aVpartly
p2903
aVcrack
p2904
aVelse
p2905
aVanthony
p2906
aVdetermination
p2907
aVcompromised
p2908
aVlook
p2909
aVgovernor
p2910
aVpace
p2911
aVwhile
p2912
aVsubstantial
p2913
aVsmart
p2914
aVendanger
p2915
aVfleet
p2916
aVguide
p2917
aVunderground
p2918
aVcostly
p2919
aVvoters
p2920
aVfunded
p2921
aVdarrell
p2922
aVready
p2923
aVfannie
p2924
aVanymore
p2925
aVgrant
p2926
aVbelong
p2927
aVshuttered
p2928
aVkarl
p2929
aVgrand
p2930
aVg.i
p2931
aVconflict
p2932
aVappropriations
p2933
aVused
p2934
aVtemporary
p2935
aVsuggestion
p2936
aVdime
p2937
aVuses
p2938
aVcleaning
p2939
aVdecency
p2940
aVskyrocketing
p2941
aVkurdish
p2942
aVolder
p2943
aVpoland
p2944
aVincreases
p2945
aVobviously
p2946
aVapproval
p2947
aVreclaim
p2948
aVambassador
p2949
aVpositioned
p2950
aVempowered
p2951
aVquarters
p2952
aVuseful
p2953
aVpraying
p2954
aVretirement
p2955
aV$
aVexercising
p2956
aVbarack
p2957
aVquestioned
p2958
aVguarantees
p2959
aVremaining
p2960
aV...
p2961
aVmarch
p2962
aVevaluate
p2963
aVshowing
p2964
aVdisplaced
p2965
aVgame
p2966
aVdefied
p2967
aVpillar
p2968
aVstrife
p2969
aVpopular
p2970
aVsaddled
p2971
aVparade
p2972
aVfathers
p2973
aVcreation
p2974
aVsome
p2975
aVurgent
p2976
aVexperienced
p2977
aVfanfare
p2978
aVsavage
p2979
aVdescribing
p2980
aVcivilization
p2981
aVslash
p2982
aVrun
p2983
aVstem
p2984
aVstep
p2985
aVache
p2986
aVabroad
p2987
aVtroops
p2988
aVshine
p2989
aVfaith
p2990
aVwasn\u2019t
p2991
aVcongressman
p2992
aVsilence
p2993
aVseeing
p2994
aVwithin
p2995
aVpentagon
p2996
aVrolls
p2997
aVstatistics
p2998
aVcomputer
p2999
aVrenewal
p3000
aVagain.\u201d
p3001
aVplacing
p3002
aVaccountability
p3003
aVvisas
p3004
aVheritage
p3005
aVmanufacture
p3006
aVhimself
p3007
aVcollapsed
p3008
aVservicemembers
p3009
aVlarry
p3010
aVreed
p3011
aVsegregation
p3012
aVtragically
p3013
aVrussian
p3014
aVideals
p3015
aVforesight
p3016
aVestimates
p3017
aVfdr
p3018
aVsimilar
p3019
aVmalia
p3020
aVhigh-speed
p3021
aVinch
p3022
aVordered
p3023
aVadults
p3024
aVmindful
p3025
aVrecommendation
p3026
aVreopening
p3027
aVancestors
p3028
aVupended
p3029
aVamounts
p3030
aVfears
p3031
aVapplication
p3032
aVpoliticians
p3033
aVforge
p3034
aVmanhattan
p3035
aVdraw
p3036
aVkansas
p3037
aVvisits
p3038
aVwilliam
p3039
aVdrag
p3040
aVoregon
p3041
aVstructure
p3042
aVurged
p3043
aVturbines
p3044
aVorbit
p3045
aVdepth
p3046
aVbribe
p3047
aVrequires
p3048
aVsounded
p3049
aVregion\u2019s
p3050
aVhilda
p3051
aVfarms
p3052
aVgo
p3053
aVgm
p3054
aVgi
p3055
aVcompact
p3056
aVshackles
p3057
aVmosque
p3058
aVdoes
p3059
aVrollout
p3060
aVexcluded
p3061
aVfriendly
p3062
aVbedrock
p3063
aVminers
p3064
aVwave
p3065
aVhasn\u2019t
p3066
aVfacebook
p3067
aVtelling
p3068
aVyourselves
p3069
aVpositions
p3070
aVbutton
p3071
aVcompassionate
p3072
aVmichael
p3073
aVryan
p3074
aVthey\u2019d
p3075
aVbarbara
p3076
aVenforce
p3077
aVboots
p3078
aVjump
p3079
aVpicked
p3080
aVclick
p3081
aVplays
p3082
aVschedule
p3083
aVcell
p3084
aVexperiment
p3085
aVpoles
p3086
aV;
aVfocuses
p3087
aVfollowing
p3088
aVfocused
p3089
aVdeserts
p3090
aVindivisible
p3091
aVjustice
p3092
aVproducts
p3093
aVsalvation
p3094
aVaddresses
p3095
aVdanger
p3096
aVshake
p3097
aVwin
p3098
aVmanage
p3099
aVaddressed
p3100
aVsurpluses
p3101
aVsinging
p3102
aVremains
p3103
aVadversary
p3104
aVvehicle
p3105
aVjonathan
p3106
aVhistorically
p3107
aVreflects
p3108
aVbureaucracy
p3109
aVstarted
p3110
aVbecomes
p3111
aVmissile
p3112
aVisraelis
p3113
aVappointed
p3114
aVannouncing
p3115
aVsanctions
p3116
aVride
p3117
aVrecession
p3118
aVcrossed
p3119
aVservants
p3120
aVmeet
p3121
aVcontrol
p3122
aVbeijing
p3123
aVproviders
p3124
aVescaped
p3125
aVpulling
p3126
aVsought
p3127
aVfounding
p3128
aVhesitate
p3129
aVafricans
p3130
aVpoetry
p3131
aVfrontiers
p3132
aVconversations
p3133
aVfarm
p3134
aVpeace
p3135
aVronald
p3136
aVengineering
p3137
aVadvocates
p3138
aVagenda
p3139
aV5,000
p3140
aVexecutives
p3141
aVfastest
p3142
aVunbreakable
p3143
aVincluding
p3144
aVmentioned
p3145
aVhelicopters
p3146
aVemails
p3147
aVauto
p3148
aVhands
p3149
aVfront
p3150
aVhere\u2019s
p3151
aVlet\u2019s
p3152
aVuniversity
p3153
aVmagnitude
p3154
aVseniors
p3155
aVgod\u2019s
p3156
aVinterdependence
p3157
aVchunk
p3158
aV700
p3159
aVvariety
p3160
aVmeasure
p3161
aVspecial
p3162
aVarmor
p3163
aVconfess
p3164
aVthriving
p3165
aVcause
p3166
aVachievements
p3167
aVwithdrawal
p3168
aVdelegates
p3169
aVcaregivers
p3170
aVattending
p3171
aVcompletely
p3172
aVadvisor
p3173
aV20,000
p3174
aVdrowning
p3175
aVhostile
p3176
aVfueled
p3177
aVdetermining
p3178
aVdiminished
p3179
aVmembership
p3180
aVtimes
p3181
aVacres
p3182
aVted\u2019s
p3183
aVmankind
p3184
aVsucceeds
p3185
aVzero-sum
p3186
aVpowerful
p3187
aVdate
p3188
aVcongo
p3189
aVequity
p3190
aVprecisely
p3191
aVquality
p3192
aVhiding
p3193
aVmanagement
p3194
aVprivacy
p3195
aVbears
p3196
aVguys
p3197
aVdurable
p3198
aVrelations
p3199
aVattack
p3200
aVperfectly
p3201
aVfinal
p3202
aVpunish
p3203
aVexactly
p3204
aVinnovate
p3205
aVoverwhelming
p3206
aVben
p3207
aVaspiration
p3208
aVbed
p3209
aVdefense
p3210
aVdumb
p3211
aVproviding
p3212
aVdistinguished
p3213
aVbet
p3214
aVenforced
p3215
aVbilateral
p3216
aVlightly
p3217
aVhorrors
p3218
aVneed
p3219
aVconstrained
p3220
aVborder
p3221
aVpursued
p3222
aVable
p3223
aVbattles
p3224
aVamerica\u2019s
p3225
aVinstance
p3226
aVissuing
p3227
aVpivotal
p3228
aVtruck
p3229
aVpursues
p3230
aVfuels
p3231
aVdeploy
p3232
aVpassionately
p3233
aVunleash
p3234
aVintentions
p3235
aVconnected
p3236
aVbut
p3237
aVconsequences
p3238
aVlibyan
p3239
aVconstrain
p3240
aVemerging
p3241
aVviolation
p3242
aVairlift
p3243
aVanyway
p3244
aVwell-being
p3245
aVsoldiers
p3246
aVshield
p3247
aVpartners
p3248
aVenvy
p3249
aVbased
p3250
aVunfinished
p3251
aVearned
p3252
aV(
aVwinner
p3253
aVhopeful
p3254
aVemployer
p3255
aVbrighter
p3256
aVarabian
p3257
aVinherited
p3258
aVemployee
p3259
aVachieve
p3260
aVcrumbling
p3261
aVseizing
p3262
aVmichigan
p3263
aVoverall
p3264
aVmaritime
p3265
aVjoint
p3266
aVlegitimate
p3267
aVprocedures
p3268
aVendless
p3269
aVgray
p3270
aVtrucks
p3271
aVhiring
p3272
aVshopping
p3273
aVshe
p3274
aVcontain
p3275
aVconsulates
p3276
aVprayers
p3277
aVpitch
p3278
aVreinforce
p3279
aVaccused
p3280
aVdesperate
p3281
aVoperated
p3282
aVhaiyan
p3283
aVtend
p3284
aVstate
p3285
aVtens
p3286
aVneither
p3287
aVcomparable
p3288
aVsole
p3289
aVimportance
p3290
aVkey
p3291
aVpolice
p3292
aVprecious
p3293
aVundetermined
p3294
aVhits
p3295
aVlimits
p3296
aVcareer
p3297
aVminds
p3298
aVstrains
p3299
aVadmit
p3300
aVjourney
p3301
aVtorn
p3302
aVdiplomats
p3303
aVtuesday
p3304
aVcynicism
p3305
aVquit
p3306
aVaddition
p3307
aVthanked
p3308
aVslowly
p3309
aVfog
p3310
aVpoet
p3311
aVisolating
p3312
aVshoulders
p3313
aVdiversity
p3314
aVromney
p3315
aVreleasing
p3316
aVnetanyahu
p3317
aVpolicy
p3318
aVours
p3319
aVtroubled
p3320
aVharder
p3321
aVsecrets
p3322
aV180,000
p3323
aVscene
p3324
aVsingle-payer
p3325
aVsurface
p3326
aVbucks
p3327
aVcapture
p3328
aVsensitive
p3329
aVbegan
p3330
aVtripoli
p3331
aVcampus
p3332
aVparts
p3333
aVspeaker
p3334
aVbuffett
p3335
aVforgotten
p3336
aVeffect
p3337
aVdiscouraged
p3338
aVfierce
p3339
aVfrequently
p3340
aVsingle
p3341
aVdestruction
p3342
aVpaycheck
p3343
aVashley
p3344
aVreflection
p3345
aVmarvin\u2019s
p3346
aVi
aVobstacles
p3347
aVwell
p3348
aVdrone
p3349
aVdeadly
p3350
aVrestore
p3351
aVenormously
p3352
aVdiscord
p3353
aVincreasingly
p3354
aVaccurate
p3355
aVsources
p3356
aVmistakes
p3357
aVdistant
p3358
aVskill
p3359
aVfarther
p3360
aVjeff
p3361
aVmcconnell
p3362
aVought
p3363
aVhomework
p3364
aVdefinitive
p3365
aVfate
p3366
aVhistoric
p3367
aVunseen
p3368
aVimmediately
p3369
aVloss
p3370
aVlincoln
p3371
aVnecessary
p3372
aVlost
p3373
aVexploiting
p3374
aVpayments
p3375
aVlose
p3376
aVrefugees
p3377
aVpage
p3378
aVbacklog
p3379
aVshed
p3380
aVtwitter
p3381
aVlibrary
p3382
aVtempered
p3383
aVcleveland
p3384
aVhome
p3385
aVpeter
p3386
aVbroad
p3387
aVfavors
p3388
aVrewarding
p3389
aVcradle
p3390
aVweighs
p3391
aVdemonstrated
p3392
aVlimitations
p3393
aVreaching
p3394
aVexpansion
p3395
aVbalkans
p3396
aVprohibited
p3397
aVinstinct
p3398
aVrefuge
p3399
aVfreedom
p3400
aVrecognized
p3401
aVpendleton
p3402
aVrecognizes
p3403
aVstakes
p3404
aVequally
p3405
aVpreviously
p3406
aVwashington
p3407
aVnave
p3408
aVdiplomatically
p3409
aVmanaging
p3410
aVmississippi
p3411
aVpermits
p3412
aVadditional
p3413
aVmuseum
p3414
aVnoticed
p3415
aVinner
p3416
aVnotices
p3417
aVexposure
p3418
aVnorth
p3419
aVairstrikes
p3420
aVagrees
p3421
aVevacuate
p3422
aVcollected
p3423
aVhi
p3424
aVgain
p3425
aVcourts
p3426
aVpreventable
p3427
aVhighest
p3428
aVeat
p3429
aVhe
p3430
aVcells
p3431
aVgrieve
p3432
aVhosting
p3433
aVsigned
p3434
aVcruel
p3435
aVstories
p3436
aVwalter
p3437
aVdisplay
p3438
aVstrengthens
p3439
aVdiligently
p3440
aVmarketplace
p3441
aVuniversal
p3442
aVpenny
p3443
aVdialogue
p3444
aVbeats
p3445
aVlived
p3446
aVeducation
p3447
aVeric
p3448
aVoffensive
p3449
aVfirefighters
p3450
aVgifted
p3451
aVstar
p3452
aVstay
p3453
aVnapolitano
p3454
aVbackstage
p3455
aVpathways
p3456
aVdeter
p3457
aVfriends
p3458
aVedith
p3459
aVblogs
p3460
aVpersistent
p3461
aVportion
p3462
aVunspeakable
p3463
aVlives
p3464
aVrebuilding
p3465
aV8th
p3466
aVretirees
p3467
aVfour-year
p3468
aVdynamic
p3469
aVprotest
p3470
aVasian
p3471
aVwhose
p3472
aVfronts
p3473
aVdisability
p3474
aVboundless
p3475
aVbailout
p3476
aVteaching
p3477
aVsorry
p3478
aVupdated
p3479
aVcollaborate
p3480
aVrescue
p3481
aVvoid
p3482
aVrailways
p3483
aVmuslim-majority
p3484
aVmilitary-style
p3485
aVequivocation
p3486
aVreforms
p3487
aVaffect
p3488
aVcourageous
p3489
aVvast
p3490
aVskills
p3491
aVcompanies
p3492
aVsolution
p3493
aVfrozen
p3494
aVenhance
p3495
aVclothes
p3496
aVforce
p3497
aVjapanese
p3498
aVacross
p3499
aVlikely
p3500
aVimplemented
p3501
aVeven
p3502
aVspouses
p3503
aVbetraying
p3504
aVprisons
p3505
aVtirelessly
p3506
aVasia
p3507
aVliberated
p3508
aVpragmatism
p3509
aVdr.
p3510
aVnew
p3511
aVnet
p3512
aVupward
p3513
aVever
p3514
aVnes
p3515
aVevolving
p3516
aVmen
p3517
aVdrew
p3518
aVmet
p3519
aVgoverning
p3520
aVactive
p3521
aV100
p3522
aVdry
p3523
aVluther
p3524
aVleland
p3525
aVeconomics
p3526
aVignoring
p3527
aVcredit
p3528
aVchrysler
p3529
aVpermit
p3530
aVcomplicated
p3531
aVjoshua
p3532
aVcampaign
p3533
aVmobility
p3534
aVreagan
p3535
aVcounty
p3536
aVspecifics
p3537
aVninety
p3538
aVmoral
p3539
aVguests
p3540
aVlandscape
p3541
aVcriminals
p3542
aVarmy
p3543
aVarms
p3544
aVleaks
p3545
aVcall
p3546
aVcalm
p3547
aVcompromises
p3548
aVsurvive
p3549
aVtype
p3550
aVtell
p3551
aVsupporters
p3552
aVexpose
p3553
aVwars
p3554
aVwarn
p3555
aVberlin
p3556
aVrussia\u2019s
p3557
aVslowest
p3558
aVroom
p3559
aVrights
p3560
aVroof
p3561
aVroot
p3562
aVdefer
p3563
aVgive
p3564
aVinvolve
p3565
aV10,000
p3566
aVseoul
p3567
aVadvancing
p3568
aVaging
p3569
aVkabul
p3570
aVglobalization
p3571
aVcurrents
p3572
aVanswer
p3573
aVaurora
p3574
aVminority
p3575
aVvicious
p3576
aVschoolchildren
p3577
aVpresident
p3578
aVkarachi
p3579
aVpurchase
p3580
aVlifesaving
p3581
aVattempt
p3582
aVthird
p3583
aVmaintain
p3584
aVfrequent
p3585
aVgoodbye
p3586
aVuninsured
p3587
aVoperate
p3588
aVjack
p3589
aVoperations
p3590
aVdeck
p3591
aVgettysburg
p3592
aVresponsive
p3593
aVbefore
p3594
aVscoring
p3595
aVpersonal
p3596
aV,
aVcrew
p3597
aVbetter
p3598
aVdamascus
p3599
aVdifferently
p3600
aVenlisted
p3601
aVpersist
p3602
aVstalemate
p3603
aVweeks
p3604
aVovercome
p3605
aVcombination
p3606
aVweakness
p3607
aVunemployed
p3608
aVintimidation
p3609
aVhigh-capacity
p3610
aVrhetoric
p3611
aVleaner
p3612
aVarrested
p3613
aVmistrust
p3614
aVvictories
p3615
aVwent
p3616
aVoperatives
p3617
aVside
p3618
aVmean
p3619
aVprinciples
p3620
aVaide
p3621
aVtaught
p3622
aVtrading
p3623
aVnavy
p3624
aVaids
p3625
aVdawn
p3626
aVextract
p3627
aVcrucial
p3628
aVcontent
p3629
aVsurprise
p3630
aVturning
p3631
aVprofess
p3632
aVu.s.
p3633
aVregime\u2019s
p3634
aVstruggle
p3635
aVegyptians
p3636
aVholidays
p3637
aVabdulmutallab
p3638
aVaisle
p3639
aVstarts
p3640
aVmessages
p3641
aVsignature
p3642
aVmoving
p3643
aVloud
p3644
aVeconomists
p3645
aVgrade
p3646
aVhook
p3647
aVstrasbourg
p3648
aVwe\u2019d
p3649
aVgirls
p3650
aVtwisted
p3651
aVguidelines
p3652
aVvillages
p3653
aVbegins
p3654
aVdistance
p3655
aVanxiety
p3656
aVdatabase
p3657
aVbitterness
p3658
aVpreparation
p3659
aVmatter
p3660
aVwiesel
p3661
aVsees
p3662
aVmodern
p3663
aVmind
p3664
aVmine
p3665
aVchildcare
p3666
aVseen
p3667
aVseem
p3668
aVdared
p3669
aVseek
p3670
aVtells
p3671
aVmcchrystal
p3672
aVfitting
p3673
aVestablished
p3674
aVproving
p3675
aVpanel
p3676
aVtranslator
p3677
aVregular
p3678
aVmarie
p3679
aVassisting
p3680
aVmedical
p3681
aVincompatible
p3682
aVdog
p3683
aVdod
p3684
aVpresident-elect
p3685
aVcompetitors
p3686
aVdefinitely
p3687
aVprinciple
p3688
aVurgency
p3689
aVselected
p3690
aVhunger
p3691
aVretire
p3692
aVending
p3693
aVtreaties
p3694
aVattempts
p3695
aVpoison
p3696
aVstepping
p3697
aVnevada
p3698
aVhubs
p3699
aVjudges
p3700
aVresisting
p3701
aVunleashes
p3702
aVexplain
p3703
aVdebts
p3704
aVunleashed
p3705
aVjudged
p3706
aVfolks
p3707
aVmonuments
p3708
aVjailed
p3709
aVexports
p3710
aVstop
p3711
aVcoast
p3712
aVcracks
p3713
aVchristopher
p3714
aVnicole
p3715
aVsupplies
p3716
aVreviewed
p3717
aVu.n.
p3718
aVcomply
p3719
aVearn
p3720
aVbar
p3721
aVfields
p3722
aVbay
p3723
aVbad
p3724
aVbriefed
p3725
aVseeks
p3726
aV18
p3727
aVban
p3728
aVdecides
p3729
aVtesting
p3730
aVdecided
p3731
aVsubject
p3732
aVbrazil
p3733
aVsaid
p3734
aVtimeframe
p3735
aVsorts
p3736
aVtolerance
p3737
aVwarrior
p3738
aVwears
p3739
aVignorance
p3740
aVweary
p3741
aVharvard
p3742
aVcousin
p3743
aVsuggested
p3744
aVuncertainty
p3745
aVagainst
p3746
aVdistinction
p3747
aVcontribution
p3748
aVconfronted
p3749
aVappeared
p3750
aVguaranteed
p3751
aVhardworking
p3752
aVheight
p3753
aVassad\u2019s
p3754
aVinitiative
p3755
aVdrilled
p3756
aVadministrations
p3757
aVtargeting
p3758
aVputs
p3759
aVbasis
p3760
aVthree
p3761
aVtiny
p3762
aVcommission
p3763
aVtrigger
p3764
aVinterest
p3765
aVbasic
p3766
aVentered
p3767
aVthrew
p3768
aVwebsite
p3769
aVdeeper
p3770
aVprosperous
p3771
aVsuppress
p3772
aVdismiss
p3773
aVpersonally
p3774
aVdeepen
p3775
aVunpopular
p3776
aVexception
p3777
aVaffirm
p3778
aVeconomies
p3779
aVtransformation
p3780
aVugly
p3781
aVnear
p3782
aVbalance
p3783
aVemployees
p3784
aVseven
p3785
aVmexico
p3786
aVis
p3787
aVit
p3788
aVdefeated
p3789
aVii
p3790
aVshame
p3791
aV2009.
p3792
aVin
p3793
aVdisappear
p3794
aVif
p3795
aVgrown
p3796
aVmake
p3797
aVpotentially
p3798
aVcolonies
p3799
aVsidelines
p3800
aVconfronting
p3801
aVgrows
p3802
aVentitled
p3803
aVisrael\u2019s
p3804
aVgovernors
p3805
aVbloomberg
p3806
aVi.
p3807
aVopportunity
p3808
aVthoughts
p3809
aVkid
p3810
aVpracticed
p3811
aVprograms
p3812
aVsettled
p3813
aVfailing
p3814
aVinherit
p3815
aVpractices
p3816
aVqualities
p3817
aVclaims
p3818
aVinvestments
p3819
aVleft
p3820
aVjust
p3821
aVwasteful
p3822
aVupgrading
p3823
aVunfair
p3824
aVassigned
p3825
aVfighters
p3826
aVidentify
p3827
aVhuman
p3828
aVfacts
p3829
aVyes
p3830
aVinstructed
p3831
aVyet
p3832
aVbelfast
p3833
aVqaeda\u2019s
p3834
aVcandidate
p3835
aVasunder
p3836
aVlegion
p3837
aVcharacter
p3838
aVservicemen
p3839
aVsave
p3840
aVills
p3841
aVsailors
p3842
aVinterior
p3843
aVjulia
p3844
aVbackground
p3845
aVwanting
p3846
aVdreams
p3847
aVshoulder
p3848
aVdignity
p3849
aVperforming
p3850
aVunnecessary
p3851
aVsignal
p3852
aVdean
p3853
aVdeal
p3854
aVsomehow
p3855
aVelderly
p3856
aVdear
p3857
aVshort-term
p3858
aVheinous
p3859
aVcollect
p3860
aVinvestigations
p3861
aVarguing
p3862
aVlesbians
p3863
aVbold
p3864
aVkeeper
p3865
aVhighway
p3866
aVwept
p3867
aVchilean
p3868
aVempowerment
p3869
aVmagazine
p3870
aVafternoon
p3871
aVcommit
p3872
aVautomatically
p3873
aVmanagers
p3874
aVintellectual
p3875
aVchooses
p3876
aVdown
p3877
aVlies
p3878
aVdoctrine
p3879
aV1990s
p3880
aVweathered
p3881
aVinitial
p3882
aVcounterproductive
p3883
aVfraction
p3884
aVform
p3885
aVclinics
p3886
aVpensions
p3887
aVlanding
p3888
aVford
p3889
aVfailure
p3890
aVsurrender
p3891
aVfort
p3892
aVbuilds
p3893
aVprevents
p3894
aVattached
p3895
aVtucson
p3896
aVeconomic
p3897
aVstages
p3898
aVpropaganda
p3899
aVseparated
p3900
aVstrengthening
p3901
aVshia
p3902
aVone-third
p3903
aVsale
p3904
aVrevitalize
p3905
aVfatherhood
p3906
aVship
p3907
aVcoretta
p3908
aVdiscriminate
p3909
aVaunts
p3910
aVgenerally
p3911
aVhanded
p3912
aVdigital
p3913
aVdelivered
p3914
aVfelt
p3915
aVfell
p3916
aVauthorities
p3917
aVweekend
p3918
aVdied
p3919
aVderail
p3920
aVbillion
p3921
aVmilitias
p3922
aVhappening
p3923
aVassume
p3924
aVdaily
p3925
aVpremiums
p3926
aVprofits
p3927
aVprecise
p3928
aVmanaged
p3929
aVrelieve
p3930
aVsouls
p3931
aVlaura
p3932
aVmanager
p3933
aVmile
p3934
aVredouble
p3935
aVforeseen
p3936
aVskin
p3937
aVbomber
p3938
aV21st
p3939
aVsuicide
p3940
aVdepend
p3941
aVoutdated
p3942
aVfather
p3943
aVanswered
p3944
aVfinally
p3945
aVmarks
p3946
aVsuffered
p3947
aVme
p3948
aVbillionaire
p3949
aVword
p3950
aVgovernments
p3951
aVdid
p3952
aVdie
p3953
aVproposals
p3954
aVdemocrat
p3955
aVkeepers
p3956
aVtravels
p3957
aVexcellence
p3958
aVround
p3959
aVtalked
p3960
aVdealing
p3961
aVeating
p3962
aVtheories
p3963
aVtargets
p3964
aVafghanistan
p3965
aVadds
p3966
aVsuspect
p3967
aVsomalia
p3968
aVinternational
p3969
aVfilled
p3970
aVkelsey
p3971
aVtransportation
p3972
aVtransparency
p3973
aVfrench
p3974
aVrebates
p3975
aVearthquake
p3976
aVwait
p3977
aVbox
p3978
aVboy
p3979
aVinstitute
p3980
aVshift
p3981
aVhigh-tech
p3982
aVbob
p3983
aVgenuinely
p3984
aVtreasure
p3985
aVmerely
p3986
aVhistories
p3987
aVflexibility
p3988
aVpatriots
p3989
aVverge
p3990
aVplots
p3991
aVeverybody
p3992
aVwealth
p3993
aVsake
p3994
aVlieutenants
p3995
aVvisit
p3996
aVfrance
p3997
aVsharing
p3998
aVparks
p3999
aVacceptable
p4000
aVdowntown
p4001
aVrigid
p4002
aVdownturn
p4003
aVeffort
p4004
aVfly
p4005
aVavoiding
p4006
aVflu
p4007
aVsoul
p4008
aVgrowing
p4009
aVmaking
p4010
aVarrive
p4011
aVclaim
p4012
aVclassrooms
p4013
aVlobbying
p4014
aVwe\u2019re
p4015
aVagent
p4016
aVbattered
p4017
aVcouncil
p4018
aVchemical
p4019
aVsunday
p4020
aVpersuasion
p4021
aVsworn
p4022
aVpathway
p4023
aVmap
p4024
aVstaying
p4025
aVmay
p4026
aVmac
p4027
aVdesigned
p4028
aVdestructive
p4029
aVgrow
p4030
aVman
p4031
aVjohnson
p4032
aVmaybe
p4033
aVpreacher
p4034
aVborrowing
p4035
aVdwight
p4036
aVtale
p4037
aVjail
p4038
aVblock
p4039
aVafrican
p4040
aVtall
p4041
aVtalk
p4042
aVshoes
p4043
aVcathedral
p4044
aVgradual
p4045
aVpointed
p4046
aVyvonne
p4047
aVstability
p4048
aVcuts
p4049
aVargued
p4050
aVequip
p4051
aVsetbacks
p4052
aVgroup
p4053
aVthank
p4054
aVinteresting
p4055
aVmain
p4056
aVundermines
p4057
aVtexas
p4058
aVfinance
p4059
aVviews
p4060
aVimpulses
p4061
aVsooner
p4062
aVlunch
p4063
aVaspirations
p4064
aVkilled
p4065
aVpossess
p4066
aVboehner
p4067
aVgamble
p4068
aVrock
p4069
aVlimit
p4070
aVcyberspace
p4071
aVunlock
p4072
aVgirl
p4073
aVcanada
p4074
aVliving
p4075
aVafghans
p4076
aVjackson
p4077
aVimperative
p4078
aVemerged
p4079
aVcorrect
p4080
aVinaction
p4081
aVcharlotte
p4082
aVearlier
p4083
aVself-determination
p4084
aVmidshipmen
p4085
aVcalifornia
p4086
aVtunisia
p4087
aVadvance
p4088
aVlanguage
p4089
aVwhere
p4090
aVthing
p4091
aVthink
p4092
aVwaited
p4093
aVfirst
p4094
aVquestion
p4095
aVamericans
p4096
aVlong
p4097
aVcarry
p4098
aVcorporations
p4099
aVsounds
p4100
aVlittle
p4101
aVanyone
p4102
aVconsultation
p4103
aVparticipated
p4104
aVspeaking
p4105
aVbloodshed
p4106
aVeyes
p4107
aVmoscow
p4108
aVcontinuous
p4109
aVhillary
p4110
aVdanny
p4111
aV11
p4112
aV10
p4113
aV13
p4114
aV12
p4115
aV15
p4116
aV14
p4117
aV17
p4118
aV16
p4119
aV19
p4120
aVautomakers
p4121
aVprotected
p4122
aVwere
p4123
aVgathering
p4124
aVexpire
p4125
aVvoices
p4126
aVtuscaloosa
p4127
aVwinding
p4128
aVshimon
p4129
aVfortified
p4130
aVgiffords
p4131
aVspeakers
p4132
aVefficient
p4133
aVanswering
p4134
aVisolate
p4135
aVshocked
p4136
aVendangered
p4137
aVpotential
p4138
aVperformance
p4139
aVchannel
p4140
aVultimate
p4141
aVbets
p4142
aV200
p4143
aVanalysts
p4144
aVpain
p4145
aVnormal
p4146
aVtrack
p4147
aVpaid
p4148
aVassault
p4149
aVukrainians
p4150
aVcomplaints
p4151
aVproxies
p4152
aVhardships
p4153
aVespecially
p4154
aVsurprising
p4155
aVfills
p4156
aVproperly
p4157
aVshop
p4158
aVrating
p4159
aVshot
p4160
aVshow
p4161
aVsites
p4162
aVthreshold
p4163
aVcorner
p4164
aVdoesn\u2019t
p4165
aVdata
p4166
aVdeportation
p4167
aVfend
p4168
aVdick
p4169
aVstorms
p4170
aVenough
p4171
aVimpunity
p4172
aVblack
p4173
aVdeployed
p4174
aVtreasury
p4175
aVawareness
p4176
aVisn\u2019t
p4177
aVget
p4178
aVcontracts
p4179
aVmerkel
p4180
aVemployers
p4181
aVkillers
p4182
aVnearly
p4183
aVseared
p4184
aVyield
p4185
aVmorning
p4186
aVyseali
p4187
aVmiles
p4188
aVfinishing
p4189
aVworrying
p4190
aVdeclared
p4191
aV2011.
p4192
aVhonesty
p4193
aVseat
p4194
aVrelative
p4195
aVeliminating
p4196
aVwonder
p4197
aV24/7
p4198
aVboundaries
p4199
aVbehind
p4200
aVreading
p4201
aVchecks
p4202
aVaffordable
p4203
aVima
p4204
aVinfrastructure
p4205
aVaugust
p4206
aVparent
p4207
aVlegitimacy
p4208
aVkilling
p4209
aVaccording
p4210
aVtour
p4211
aVremake
p4212
aVamong
p4213
aVstretches
p4214
aVcancer
p4215
aVinnovations
p4216
aVmaintained
p4217
aVgrants
p4218
aVstretched
p4219
aVno-fly
p4220
aVcustody
p4221
aVconsidering
p4222
aVsensible
p4223
aVarts
p4224
aVcapable
p4225
aVmark
p4226
aVmars
p4227
aVconstituencies
p4228
aVborders
p4229
aVmary
p4230
aVeducated
p4231
aVspare
p4232
aVoffered
p4233
aVdramatic
p4234
aVwake
p4235
aVdeclaration
p4236
aVthose
p4237
aVsound
p4238
aVstacked
p4239
aVdivisive
p4240
aVn't
p4241
aVongoing
p4242
aVpromising
p4243
aVinvestigating
p4244
aVeventually
p4245
aVendowed
p4246
aVsincere
p4247
aVmiddle
p4248
aVpressing
p4249
aVwisely
p4250
aVeveryday
p4251
aVmovements
p4252
aVdifferent
p4253
aVpat
p4254
aVharsh
p4255
aVdoctor
p4256
aVpay
p4257
aVsame
p4258
aVheartbreak
p4259
aVspeech
p4260
aVarguments
p4261
aVstruggling
p4262
aVworkplace
p4263
aVoil
p4264
aVassist
p4265
aV2013
p4266
aVrunning
p4267
aVlargely
p4268
aViraqis
p4269
aVroughly
p4270
aVmortgages
p4271
aVaccountable
p4272
aVsolve
p4273
aVhaven\u2019t
p4274
aVgates
p4275
aVgangs
p4276
aVmoney
p4277
aVups
p4278
aVfueling
p4279
aVsights
p4280
aVaspect
p4281
aVpile
p4282
aVextensive
p4283
aVcareers
p4284
aVgrip
p4285
aVgrit
p4286
aVdepartment
p4287
aVgrid
p4288
aVmom
p4289
aVsecrecy
p4290
aVrailroad
p4291
aVadministration\u2019s
p4292
aVchristina
p4293
aVidentifying
p4294
aVserves
p4295
aVfacing
p4296
aVchamber
p4297
aVaudience
p4298
aVeither
p4299
aVserved
p4300
aVpassionate
p4301
aVjews
p4302
aVsmiles
p4303
aVslavery
p4304
aVerase
p4305
aVimages
p4306
aVorganizing
p4307
aVgenerates
p4308
aVbooming
p4309
aVgross
p4310
aVconfirm
p4311
aVfooting
p4312
aVpioneer
p4313
aVcritical
p4314
aVexpressing
p4315
aVmoderate
p4316
aVdictators
p4317
aVbroken
p4318
aV\u201clet
p4319
aVsquarely
p4320
aVmanufacturer
p4321
aVregulations
p4322
aVconducting
p4323
aVisland
p4324
aVviolence
p4325
aVdevelops
p4326
aVpractical
p4327
aVpockets
p4328
aVmounting
p4329
aVjoplin
p4330
aVroad
p4331
aVorganizers
p4332
aVquietly
p4333
aVlands
p4334
aVmemorials
p4335
aVwhites
p4336
aVspreading
p4337
aVskilled
p4338
aVblessed
p4339
aVvacation
p4340
aVharness
p4341
aVjerusalem
p4342
aVbreath
p4343
aVdistracted
p4344
aVfates
p4345
aVappears
p4346
aVdecisive
p4347
aVdon\u2019t
p4348
aVdeepened
p4349
aVstrikes
p4350
aVsophisticated
p4351
aVnonviolence
p4352
aVemissions
p4353
aVpowerless
p4354
aVrequired
p4355
aVdeep
p4356
aVfellow
p4357
aVimagination
p4358
aVexamine
p4359
aVfile
p4360
aVlifetime
p4361
aVsyrian
p4362
aVfill
p4363
aVagain
p4364
aVpersonnel
p4365
aVdrivers
p4366
aVfield
p4367
aVcleanup
p4368
aVstudents
p4369
aVimportant
p4370
aVmemos
p4371
aVchris
p4372
aVremote
p4373
aVassets
p4374
aVpercentage
p4375
aVstarting
p4376
aVrepresent
p4377
aVcolleges
p4378
aVforget
p4379
aVdollar
p4380
aVfounded
p4381
aVforged
p4382
aVcooperative
p4383
aVtalks
p4384
aVimplement
p4385
aVchildren
p4386
aVshattered
p4387
aVdiffuse
p4388
aVmandela
p4389
aVcapitals
p4390
aVpremium
p4391
aVstraightforward
p4392
aVreturning
p4393
aVfall
p4394
aVabusing
p4395
aVdifference
p4396
aVwashing
p4397
aVdictatorship
p4398
aVmothers
p4399
aVcelebrity
p4400
aVdonald
p4401
aVreminding
p4402
aVsaudi
p4403
aVeconomically
p4404
aV20th
p4405
aVmullen
p4406
aVzero
p4407
aVperspective
p4408
aVlawyer
p4409
aVfurther
p4410
aVstood
p4411
aVmobilizing
p4412
aVcontributions
p4413
aVtribute
p4414
aVpublic
p4415
aVmovement
p4416
aVmalaria
p4417
aVcomponent
p4418
aVbeacon
p4419
aVdisastrous
p4420
aVoperating
p4421
aVsituation
p4422
aVverifiable
p4423
aVcampaigns
p4424
aVspeeches
p4425
aVhard-earned
p4426
aVstretching
p4427
aVjackie
p4428
aVsignificantly
p4429
aVairport
p4430
aVpublished
p4431
aVcommon-sense
p4432
aVnarrow
p4433
aVauthorize
p4434
aVbuses
p4435
aVtransit
p4436
aVafrica
p4437
aVarmed
p4438
aVlegislator
p4439
aVshareholders
p4440
aVeye
p4441
aVwiped
p4442
aVdestination
p4443
aVtwo
p4444
aVgovernance
p4445
aVworld.\u201d
p4446
aVachieving
p4447
aVstolen
p4448
aVmacomb
p4449
aVlanded
p4450
aVparticular
p4451
aV21st-century
p4452
aVtown
p4453
aVnone
p4454
aVhour
p4455
aVstrain
p4456
aVrecall
p4457
aVroosevelt
p4458
aVguards
p4459
aVremain
p4460
aVsudden
p4461
aVabandon
p4462
aVstrategies
p4463
aVcompare
p4464
aVbravely
p4465
aVgravely
p4466
aVvarela
p4467
aVshare
p4468
aVminimum
p4469
aVnumbers
p4470
aVpurchased
p4471
aVtraffickers
p4472
aVsharp
p4473
aVrobinson
p4474
aVnarrowly
p4475
aVneeds
p4476
aVcomfort
p4477
aVpatton
p4478
aVautomatic
p4479
aVsacred
p4480
aViraq\u2019s
p4481
aVshe\u2019s
p4482
aVadvice
p4483
aVquestioning
p4484
aVshe\u2019d
p4485
aVblood
p4486
aVcountering
p4487
aVfaculty
p4488
aVresponse
p4489
aVwhere\u2019s
p4490
aVcrowded
p4491
aVreiterate
p4492
aVcooperating
p4493
aVcoal
p4494
aVresponsibility
p4495
aVsect
p4496
aVpanama
p4497
aVpleasure
p4498
aVshinseki
p4499
aVplaying
p4500
aVfinalized
p4501
aVsetback
p4502
aVindustrial
p4503
aVthrough
p4504
aVheirs
p4505
aVexistence
p4506
aVsuffer
p4507
aV24
p4508
aV25
p4509
aV26
p4510
aV27
p4511
aVpossessions
p4512
aV23
p4513
aV29
p4514
aVlate
p4515
aVresentments
p4516
aVposture
p4517
aVhurting
p4518
aVsomeone
p4519
aVseeking
p4520
aVprejudices
p4521
aVencouraging
p4522
aVwalls
p4523
aVcompound
p4524
aViranians
p4525
aVcomplain
p4526
aVassociation
p4527
aVeasily
p4528
aVashes
p4529
aVhabits
p4530
aVgender
p4531
aVrepeating
p4532
aVports
p4533
aVbreakdown
p4534
aVharm
p4535
aVeveryone
p4536
aVmental
p4537
aVhouse
p4538
aVenergy
p4539
aVhard
p4540
aVidea
p4541
aVengaging
p4542
aVkatrina
p4543
aVconnect
p4544
aVfist
p4545
aVwe\u2019ve
p4546
aVripple
p4547
aVinsurance
p4548
aVinitiatives
p4549
aVfunding
p4550
aVprojected
p4551
aVprint
p4552
aVpolling
p4553
aVcircumstance
p4554
aVenforcing
p4555
aVdifficulty
p4556
aVmembers
p4557
aVbacked
p4558
aVbeginning
p4559
aVbenefits
p4560
aVreinforces
p4561
aVcomputers
p4562
aVaudacity
p4563
aVpilots
p4564
aVwaged
p4565
aVinstances
p4566
aVdone
p4567
aVembraced
p4568
aVwages
p4569
aVhey
p4570
aVtwenty
p4571
aVrevive
p4572
aVleast
p4573
aVpaint
p4574
aVregulation
p4575
aVassumption
p4576
aVstatement
p4577
aVrates
p4578
aVpart
p4579
aVdoctors
p4580
aVbelieve
p4581
aVinconvenient
p4582
aVstirs
p4583
aVaren\u2019t
p4584
aVgotten
p4585
aVyouth
p4586
aV2020
p4587
aVsupposed
p4588
aVtreated
p4589
aVnominee
p4590
aVages
p4591
aVorders
p4592
aVpaths
p4593
aVbuilt
p4594
aVhonors
p4595
aVmajority
p4596
aVlifts
p4597
aVbuild
p4598
aVcarolina
p4599
aVtrains
p4600
aVequipping
p4601
aVdepths
p4602
aVmost
p4603
aVsignificant
p4604
aVservices
p4605
aVextremely
p4606
aVgoodwill
p4607
aVhumanitarian
p4608
aVweigh
p4609
aVjoining
p4610
aVsector
p4611
aVthomas
p4612
aVparticularly
p4613
aVobligations
p4614
aVcommissions
p4615
aVscattered
p4616
aVbusinesses
p4617
aVcarefully
p4618
aVheadlines
p4619
aVfine
p4620
aVfind
p4621
aVgiant
p4622
aVdepended
p4623
aVnervous
p4624
aVruin
p4625
aVdistributed
p4626
aVwaiting
p4627
aVfreedoms
p4628
aVencouraged
p4629
aV8
aVadjustments
p4630
aVexpress
p4631
aVcheaper
p4632
aVcourage
p4633
aVbreast
p4634
aVtheft
p4635
aVrestart
p4636
aVresolve
p4637
aVroles
p4638
aVremove
p4639
aVcommon
p4640
aVgospel
p4641
aVmilitaries
p4642
aVcynical
p4643
aVtended
p4644
aVscenes
p4645
aVindividual
p4646
aV11th
p4647
aVhole
p4648
aVautoworkers
p4649
aVfeared
p4650
aVexpert
p4651
aVvisiting
p4652
aVinaudible
p4653
aVplease
p4654
aVfans
p4655
aVsmallest
p4656
aVburned
p4657
aVpushing
p4658
aVhistorical
p4659
aVcommercial
p4660
aVpremise
p4661
aVguantanamo
p4662
aVfull-time
p4663
aVreverse
p4664
aVrestaurant
p4665
aVsolely
p4666
aVannual
p4667
aVforeign
p4668
aVsupply
p4669
aVsimple
p4670
aVtennessee
p4671
aVsimply
p4672
aVvolunteered
p4673
aVthroughout
p4674
aVexpensive
p4675
aVensures
p4676
aVraise
p4677
aVgiunta\u2019s
p4678
aVcreate
p4679
aVconflicts
p4680
aVsecret
p4681
aVdropping
p4682
aVensured
p4683
aVireland
p4684
aVmeeting
p4685
aV4
aVkathy
p4686
aVgay
p4687
aVparents\u2019
p4688
aVhonorary
p4689
aVgas
p4690
aVcruelty
p4691
aVgap
p4692
aVunderstand
p4693
aVprices
p4694
aVresisted
p4695
aVpolitician
p4696
aVraw
p4697
aVsolid
p4698
aVbill
p4699
aVtolerate
p4700
aVelections
p4701
aVdeferred
p4702
aVreplaced
p4703
aVfun
p4704
aVbirthright
p4705
aVcentury
p4706
aVheroically
p4707
aVgunned
p4708
aVitself
p4709
aVaspects
p4710
aVdiscourse
p4711
aVemphasize
p4712
aVproved
p4713
aVdevelopment
p4714
aVyesterday
p4715
aVhusbands
p4716
aVmoment
p4717
aVpurpose
p4718
aVpredecessors
p4719
aVhadn\u2019t
p4720
aVtask
p4721
aVrules
p4722
aVenergy-efficient
p4723
aVspent
p4724
aV4,500
p4725
aVflags
p4726
aVsalvatore
p4727
aVthoroughly
p4728
aVlandmark
p4729
aVspend
p4730
aVprevention
p4731
aVsnow
p4732
aVprofoundly
p4733
aVshape
p4734
aVopenly
p4735
aValternative
p4736
aVbrandon
p4737
aVinjuries
p4738
aVapple
p4739
aVwage
p4740
aVfriendship
p4741
aVcut
p4742
aVhated
p4743
aVdeputy
p4744
aVsource
p4745
aVcontrary
p4746
aVimpoverished
p4747
aVadministrative
p4748
aVexcited
p4749
aVbin
p4750
aVadversaries
p4751
aVbig
p4752
aVmatters
p4753
aVbit
p4754
aVknock
p4755
aVfollows
p4756
aVborrows
p4757
aVptsd
p4758
aVgoogle
p4759
aVoften
p4760
aVabsolutely
p4761
aVextremism
p4762
aVmagnificent
p4763
aVback
p4764
aVextremist
p4765
aVstrongest
p4766
aVexamples
p4767
aV've
p4768
aVourselves
p4769
aVscale
p4770
aVaffects
p4771
aVdecision
p4772
aVyou\u2019re
p4773
aVintegration
p4774
aVper
p4775
aVpell
p4776
aVconnecting
p4777
aVeliminate
p4778
aVpatient
p4779
aV300
p4780
aVcontinuing
p4781
aVuse
p4782
aVmarket-based
p4783
aVgoods
p4784
aVgraduation
p4785
aVdrama
p4786
aV\u201cwhat\u2019s
p4787
aVjimmy
p4788
aVnsa
p4789
aVsteven
p4790
aVremembrance
p4791
aVlesson
p4792
aVbankruptcy
p4793
aVinfected
p4794
aVgrave
p4795
aVforward
p4796
aVaspire
p4797
aVtranslate
p4798
aVopponent
p4799
aVinvite
p4800
aVpounded
p4801
aVmurphy
p4802
aVimmigration
p4803
aVhoped
p4804
aVboys
p4805
aVcloud
p4806
aVyear\u2019s
p4807
aVhopes
p4808
aVdirected
p4809
aVrejection
p4810
aVhomeownership
p4811
aVfissile
p4812
aVq
aVplanet
p4813
aV're
p4814
aVexploration
p4815
aVplanes
p4816
aVconstant
p4817
aVputin
p4818
aVmetal
p4819
aVconsulted
p4820
aVcure
p4821
aVcurb
p4822
aVprevail
p4823
aVdenying
p4824
aV%
aVenshrined
p4825
aVexcuses
p4826
aVexplaining
p4827
aVlend
p4828
aVprepared
p4829
aVprepares
p4830
aVdesert
p4831
aVrallied
p4832
aVvehicles
p4833
aVbankers
p4834
aVresponded
p4835
aV2002
p4836
aV2003
p4837
aV2001
p4838
aV2006
p4839
aV2007
p4840
aVfailures
p4841
aV2008
p4842
aV2009
p4843
aVpresident\u2019s
p4844
aVsanctuary
p4845
aV15,000
p4846
aVgraves
p4847
aVhelps
p4848
aVmaryland
p4849
aVingredient
p4850
aVdidn\u2019t
p4851
aVhuddled
p4852
aVputting
p4853
aVassad
p4854
aVsurgeon
p4855
aVelse\u2019s
p4856
aVentire
p4857
aVrespectful
p4858
aVshock
p4859
aVmobilize
p4860
aVhavens
p4861
aVwarheads
p4862
aVeducators
p4863
aVbleeding
p4864
aVcrow
p4865
aVuncomfortable
p4866
aVcopenhagen
p4867
aVdepression
p4868
aVreconciliation
p4869
aVchicago
p4870
aVgiving
p4871
aVanthem
p4872
aVaccess
p4873
aVmanufactured
p4874
aVexercise
p4875
aVbody
p4876
aViconic
p4877
aVnimble
p4878
aVintercept
p4879
aVfactions
p4880
aVhealing
p4881
aVothers
p4882
aVsing
p4883
aVsafer
p4884
aVimperfections
p4885
aVtalent
p4886
aV33
p4887
aV31
p4888
aV30
p4889
aV35
p4890
aVlater
p4891
aVsituations
p4892
aVclimb
p4893
aVproof
p4894
aVhonor
p4895
aVnamed
p4896
aVpresidents
p4897
aVprivate
p4898
aVdistractions
p4899
aVprivately
p4900
aVoval
p4901
aVresolutions
p4902
aVnobel
p4903
aVthemselves
p4904
aVscreening
p4905
aVtrail
p4906
aVtrain
p4907
aVprizes
p4908
aVaccount
p4909
aVstations
p4910
aVassumptions
p4911
aVobvious
p4912
aVpraise
p4913
aVclosing
p4914
aVindustry
p4915
aVborrowed
p4916
aVreserved
p4917
aVfigures
p4918
aVout-educate
p4919
aVinfantry
p4920
aVeffectively
p4921
aVreserves
p4922
aVbones
p4923
aVnative
p4924
aVdemocracy
p4925
aVholds
p4926
aVhampshire
p4927
aVregions
p4928
aVresponsibilities
p4929
aVwinners
p4930
aVstock
p4931
aVbuildings
p4932
aVde
p4933
aVsir
p4934
aVwaters
p4935
aVphilosophy
p4936
aVcollection
p4937
aVpreferred
p4938
aVphysical
p4939
aVbind
p4940
aVlines
p4941
aVchief
p4942
aVaddiction
p4943
aVlined
p4944
aVagricultural
p4945
aVfortunate
p4946
aVhaiti
p4947
aVbunch
p4948
aVindustries
p4949
aVbridges
p4950
aVnegotiated
p4951
aVla
p4952
aVlo
p4953
aVlabor
p4954
aVkindergarten
p4955
aVheroism
p4956
aVwilling
p4957
aVcriminal
p4958
aVstepped
p4959
aVdad
p4960
aV\u201cno
p4961
aVgreater
p4962
aVdan
p4963
aVmention
p4964
aVcutting
p4965
aVmandate
p4966
aVinsisting
p4967
aVkindness
p4968
aVday
p4969
aVpreschool
p4970
aVstrive
p4971
aVfebruary
p4972
aVairports
p4973
aVwarned
p4974
aVidentified
p4975
aVslipping
p4976
aVratings
p4977
aV3,000
p4978
aVunmet
p4979
aVapologize
p4980
aVadministrator
p4981
aVburdened
p4982
aVsexual
p4983
aVempires
p4984
aVmatt
p4985
aVdefend
p4986
aVred
p4987
aVapproached
p4988
aVfrank
p4989
aVpayroll
p4990
aVapproaches
p4991
aVtrends
p4992
aVmarathon
p4993
aVquo
p4994
aVchiefs
p4995
aVallies
p4996
aVallied
p4997
aVbarriers
p4998
aVretain
p4999
aVfacilitate
p5000
aVsouth
p5001
aVfinest
p5002
aV2,000
p5003
aVreaches
p5004
aVstrategic
p5005
aVbatre
p5006
aVreached
p5007
aVreliable
p5008
aVancient
p5009
aVsadly
p5010
aVripples
p5011
aVpalestine
p5012
aVpakistani
p5013
aVbenghazi
p5014
aVgeorgetown
p5015
aVgear
p5016
aVunscrupulous
p5017
aVcompleted
p5018
aVenvironmental
p5019
aVreaffirm
p5020
aVdiscretionary
p5021
aVloved
p5022
aVasean
p5023
aVcompensation
p5024
aVloves
p5025
aVembody
p5026
aVvisited
p5027
aVaquino
p5028
aVhagel
p5029
aVtide
p5030
aVunlikely
p5031
aVhave
p5032
aVdictate
p5033
aVapparently
p5034
aVcontinents
p5035
aVdallas
p5036
aVincentive
p5037
aVmontgomery
p5038
aVmix
p5039
aVconcerns
p5040
aVhonestly
p5041
aVindonesians
p5042
aVunless
p5043
aVweren\u2019t
p5044
aVdisappointments
p5045
aVeight
p5046
aVpreliminary
p5047
aVprisoner
p5048
aVpayment
p5049
aVgather
p5050
aVrequest
p5051
aVdisease
p5052
aV1,000
p5053
aVoccasion
p5054
aVcartels
p5055
aVmedvedev
p5056
aVtext
p5057
aVhomeowner
p5058
aVelimination
p5059
aVrebuke
p5060
aVsupporter
p5061
aVstaff
p5062
aVinspiring
p5063
aVcommunism
p5064
aVknowledge
p5065
aVcontrols
p5066
aVbetsy
p5067
aVcommunist
p5068
aVexceptional
p5069
aVbeat
p5070
aVareas
p5071
aVwake-up
p5072
aVfixes
p5073
aVteams
p5074
aVfixed
p5075
aVmadam
p5076
aVconstructing
p5077
aVexists
p5078
aVracked
p5079
aVnational
p5080
aVaccord
p5081
aVyearning
p5082
aV\u2013
aVenhanced
p5083
aVawaits
p5084
aVhooah
p5085
aVexploited
p5086
aVreform
p5087
aVbrunt
p5088
aVdifficulties
p5089
aVphased
p5090
aVroutine
p5091
aVebola
p5092
aVprogress
p5093
aVadmiration
p5094
aVjanet
p5095
aVdeliver
p5096
aVempathy
p5097
aVinstant
p5098
aVfreely
p5099
aVtaking
p5100
aVequal
p5101
aVtrips
p5102
aVfulfilled
p5103
aVassure
p5104
aVregimes
p5105
aVglorious
p5106
aVcomment
p5107
aVrelevant
p5108
aVfostering
p5109
aVbrennan
p5110
aVcommend
p5111
aVkandahar
p5112
aVman\u2019s
p5113
aVcorrespondents
p5114
aVearning
p5115
aVcitizenship
p5116
aVvideos
p5117
aVtremendous
p5118
aV\u201cand
p5119
aVgaza
p5120
aVcurtain
p5121
aVproposal
p5122
aVdefine
p5123
aVadapting
p5124
aVblaming
p5125
aVoverwhelmingly
p5126
aVessentially
p5127
aVbulk
p5128
aVfinished
p5129
aVwartime
p5130
aVassessments
p5131
aVgeneral
p5132
aVvolunteer
p5133
aVkenya
p5134
aVdivisions
p5135
aVwelcoming
p5136
aVplain
p5137
aVpromotes
p5138
aVentrepreneurial
p5139
aVfrustrating
p5140
aVcarved
p5141
aVone\u2019s
p5142
aValmost
p5143
aVdissent
p5144
aVweighed
p5145
aVarrangements
p5146
aVclaimed
p5147
aVpartner
p5148
aVproductivity
p5149
aV)
aVadministration
p5150
aVtumbling
p5151
aVfilm
p5152
aVshuttle
p5153
aVinjured
p5154
aVpractice
p5155
aVfaces
p5156
aVsisters
p5157
aVjudgment
p5158
aVscholars
p5159
aVinsure
p5160
aVcenter
p5161
aVnevertheless
p5162
aVweapon
p5163
aVthought
p5164
aVsets
p5165
aVposition
p5166
aVsoviet
p5167
aVlatest
p5168
aVnegotiation
p5169
aVstores
p5170
aVintransigence
p5171
aVexecutive
p5172
aVdomestic
p5173
aVclinic
p5174
aVstored
p5175
aVtrans-pacific
p5176
aVseats
p5177
aVdakota
p5178
aVprotecting
p5179
aVads
p5180
aVterrorized
p5181
aVadd
p5182
aVcitizen
p5183
aVmabus
p5184
aVmatch
p5185
aVresolved
p5186
aVtests
p5187
aVjudiciary
p5188
aVlike
p5189
aVsuccess
p5190
aVvibrant
p5191
aVjournalism
p5192
aVheed
p5193
aVworks
p5194
aVaccessible
p5195
aVauthority
p5196
aVhair
p5197
aVconvey
p5198
aVproper
p5199
aVsupportive
p5200
aVhappens
p5201
aVbilly
p5202
aVhurricane
p5203
aVshelter
p5204
aVindia\u2019s
p5205
aVassuming
p5206
aVregain
p5207
aVlieutenant
p5208
aVhost
p5209
aVpetty
p5210
aValthough
p5211
aVworthy
p5212
aVsimpler
p5213
aVseriousness
p5214
aVabout
p5215
aVactual
p5216
aVcertainty
p5217
aVblessings
p5218
aVintroduced
p5219
aVrendered
p5220
aVpreexisting
p5221
aVbillions
p5222
aVchronic
p5223
aVguard
p5224
aVridge
p5225
aVrushed
p5226
aVfastest-growing
p5227
aVawarded
p5228
aVbiggest
p5229
aVglobe
p5230
aVbuy
p5231
aVinsurer
p5232
aVbus
p5233
aVbrand
p5234
aVextended
p5235
aVreminds
p5236
aVrepeated
p5237
aVwealthier
p5238
aVmemphis
p5239
aVembargo
p5240
aVwise
p5241
aVdangerous
p5242
aVminutes
p5243
aVsupreme
p5244
aVdeaths
p5245
aVperiods
p5246
aVcommentators
p5247
aVshooting
p5248
aVidentities
p5249
aVcommander-in-chief
p5250
aVtransitions
p5251
aVcorporation
p5252
aV45
p5253
aVclaiming
p5254
aV40
p5255
aVsandy
p5256
aVout
p5257
aVtraumatic
p5258
aVuncommon
p5259
aVchristians
p5260
aVprize
p5261
aVstirred
p5262
aVresolution
p5263
aVlegislatures
p5264
aVlimited
p5265
aVextends
p5266
aVfacilities
p5267
aVearmarks
p5268
aVsleep
p5269
aVhate
p5270
aVassembled
p5271
aVpoorly
p5272
aVfeeding
p5273
aVviolate
p5274
aVparis
p5275
aVcrises
p5276
aVbureaucrats
p5277
aVpoorest
p5278
aVabundance
p5279
aVstriking
p5280
aVwhatsoever
p5281
aVunder
p5282
aVnoisy
p5283
aVpride
p5284
aVlegislators
p5285
aVrisk
p5286
aVrise
p5287
aVevery
p5288
aVgratification
p5289
aVschool
p5290
aVguiding
p5291
aVenjoy
p5292
aVleaders
p5293
aVexplosions
p5294
aVconsistent
p5295
aVdirect
p5296
aVsurrounding
p5297
aVstreet
p5298
aVfriendships
p5299
aVestimated
p5300
aVshining
p5301
aVblue
p5302
aVhide
p5303
aVchrist
p5304
aVsolemn
p5305
aVbeaten
p5306
aVliberty
p5307
aVconduct
p5308
aVkicked
p5309
aVhundreds
p5310
aVsafe-haven
p5311
aVhumility
p5312
aVrepresented
p5313
aVpath
p5314
aVgenerals
p5315
aVforum
p5316
aVleaves
p5317
aVchanged
p5318
aVjill
p5319
aVmentor
p5320
aVmistake
p5321
aVchanges
p5322
aVjulie
p5323
aVfeelings
p5324
aVpatience
p5325
aVwould
p5326
aVhospital
p5327
aVdoubts
p5328
aVbayou
p5329
aVasset
p5330
aVspike
p5331
aVassessment
p5332
aVslaughtered
p5333
aVbreathe
p5334
aVreckless
p5335
aVgrief
p5336
aVphone
p5337
aVconnecticut
p5338
aVcycles
p5339
aVexcellent
p5340
aVcasualties
p5341
aVmust
p5342
aVshoot
p5343
aVjoin
p5344
aVhenry
p5345
aVmy
p5346
aVgrenade
p5347
aVshook
p5348
aVingenuity
p5349
aVflorida
p5350
aVpreserving
p5351
aVkeep
p5352
aVattract
p5353
aVguarantee
p5354
aVceremony
p5355
aVend
p5356
aVsitting
p5357
aVwriters
p5358
aVtoxic
p5359
aVgate
p5360
aVwidespread
p5361
aVcharging
p5362
aVbadly
p5363
aVmess
p5364
aVdemanding
p5365
aV-\u2014
p5366
aVamid
p5367
aVacknowledged
p5368
aVcomplexity
p5369
aVenter
p5370
aVpreventive
p5371
aVreforming
p5372
aVcancellation
p5373
aVuntold
p5374
aVover
p5375
aVmisery
p5376
aVlondon
p5377
aVbiofuels
p5378
aVexchange
p5379
aVcounterterrorism
p5380
aVexpectations
p5381
aVwriting
p5382
aVdestroyed
p5383
aVfade
p5384
aV400
p5385
aViowa
p5386
aVdiseases
p5387
aVprevented
p5388
aVecho
p5389
aVshadows
p5390
aVchuck
p5391
aVdetroit
p5392
aVfilling
p5393
aVvictory
p5394
aVeach
p5395
aVwaving
p5396
aVlasting
p5397
aVsigning
p5398
aVmisinformation
p5399
aVcelebrating
p5400
aVsaturday
p5401
aVt.
p5402
aVovercame
p5403
aVdriving
p5404
aVgod
p5405
aVpensacola
p5406
aVlaid
p5407
aVmillennium
p5408
aVgot
p5409
aVindependence
p5410
aVdecision-making
p5411
aVassociate
p5412
aVrail
p5413
aVeternal
p5414
aVfree
p5415
aVevil
p5416
aVboosting
p5417
aVwanted
p5418
aVcontractors
p5419
aVdays
p5420
aVpriorities
p5421
aVtolerant
p5422
aVhopeless
p5423
aVfirefight
p5424
aVonto
p5425
aVinspectors
p5426
aValready
p5427
aVprimary
p5428
aVhearing
p5429
aVrestrict
p5430
aVselfless
p5431
aVneighborhood
p5432
aVletting
p5433
aVtop
p5434
aVheights
p5435
aVballistic
p5436
aVtoo
p5437
aVtom
p5438
aVunbroken
p5439
aVurban
p5440
aVceiling
p5441
aVmurder
p5442
aVtool
p5443
aVserve
p5444
aVtook
p5445
aVnegotiating
p5446
aVsolicitor
p5447
aVprouder
p5448
aVsylvia
p5449
aVwestern
p5450
aVnonpartisan
p5451
aVfrankly
p5452
aVnominate
p5453
aVimmigrants
p5454
aVclasses
p5455
aVflame
p5456
aVmexico\u2019s
p5457
aVprioritize
p5458
aV10th
p5459
aVbridge
p5460
aVfashion
p5461
aVran
p5462
aVtalking
p5463
aVray
p5464
aVtraditionally
p5465
aV1967
p5466
aV-
aVisolated
p5467
aVthorough
p5468
aVupholding
p5469
aVhatch
p5470
aVrides
p5471
aVreversed
p5472
aVincapable
p5473
aVthough
p5474
aVdetainee
p5475
aVplenty
p5476
aVexplosives
p5477
aVdevastating
p5478
aVflow
p5479
aVtreaty
p5480
aVthy
p5481
aVreputation
p5482
aVenterprise
p5483
aVinspire
p5484
aVpope
p5485
aVreductions
p5486
aVqueen
p5487
aVcolors
p5488
aVradio
p5489
aVsolutions
p5490
aVearth
p5491
aVherself
p5492
aVdelays
p5493
aVminnesota
p5494
aVunsung
p5495
aVannounce
p5496
aVscripture
p5497
aVhostility
p5498
aVwatch
p5499
aVdespite
p5500
aVreport
p5501
aVcountries
p5502
aVtwice
p5503
aVcontrast
p5504
aVshots
p5505
aVruins
p5506
aVswept
p5507
aVhabit
p5508
aVresist
p5509
aVsubmitted
p5510
aVcorrupt
p5511
aVcapacity
p5512
aVtemptation
p5513
aVcontinually
p5514
aVgrandmother
p5515
aVmud
p5516
aVhopefully
p5517
aVapproach
p5518
aVdiscovery
p5519
aVweak
p5520
aVhowever
p5521
aVboss
p5522
aVsoutheast
p5523
aVwear
p5524
aVdedication
p5525
aVnews
p5526
aVnewt
p5527
aVimprove
p5528
aVfaced
p5529
aVprotect
p5530
aVfault
p5531
aVparticipating
p5532
aVplayers
p5533
aVlegionnaires
p5534
aVgames
p5535
aVexpense
p5536
aVepidemic
p5537
aVtrust
p5538
aVhitler
p5539
aVconference
p5540
aVjobless
p5541
aVbeen
p5542
aVquickly
p5543
aVconfident
p5544
aVbelongs
p5545
aVexpected
p5546
aVfleeting
p5547
aVdrugs
p5548
aVrepublicans
p5549
aV900
p5550
aVdarfur
p5551
aVcraft
p5552
aVcatch
p5553
aVheartland
p5554
aVlessen
p5555
aVlesser
p5556
aVsyria\u2019s
p5557
aVteachers
p5558
aVstopping
p5559
aVprocedure
p5560
aVexperts
p5561
aVexperience
p5562
aVindigenous
p5563
aVsuggest
p5564
aVwound
p5565
aVbeside
p5566
aVcomplex
p5567
aVseveral
p5568
aVinventors
p5569
aVcommonsense
p5570
aVmilestone
p5571
aVsocial
p5572
aVempowers
p5573
aVunyielding
p5574
aVinsisted
p5575
aVcycle
p5576
aVshortly
p5577
aVcharlie
p5578
aVpossessed
p5579
aVocean
p5580
aVsavings
p5581
aVgreatest
p5582
aVdetained
p5583
aVmother
p5584
aVhearts
p5585
aValabama
p5586
aVdads
p5587
aVproposed
p5588
aVunemployment
p5589
aVgrades
p5590
aVpurchasing
p5591
aVcampbell
p5592
aVtechnological
p5593
aVhumanity
p5594
aVgave
p5595
aVfallujah
p5596
aVcasting
p5597
aVskeptics
p5598
aVlow-income
p5599
aVadvances
p5600
aVbreaks
p5601
aV\u201cwe
p5602
aVcultural
p5603
aVbattled
p5604
aVjudge
p5605
aVburns
p5606
aVadvanced
p5607
aVapart
p5608
aVmelting
p5609
aVbrutality
p5610
aVgift
p5611
aVhunt
p5612
aV50
p5613
aVspecific
p5614
aV55
p5615
aVoffices
p5616
aVofficer
p5617
aVarbitrary
p5618
aVfrustrations
p5619
aVsuccessfully
p5620
aVproudly
p5621
aVjennifer
p5622
aVmalaysia
p5623
aVelection
p5624
aVescape
p5625
aVintellect
p5626
aVembodied
p5627
aVcooper
p5628
aVcombat
p5629
aVestablish
p5630
aVice
p5631
aVrio
p5632
aVeverything
p5633
aVembodies
p5634
aVchristmas
p5635
aVcan\u2019t
p5636
aVcore
p5637
aVdisappeared
p5638
aVchapter
p5639
aVaccountants
p5640
aVundocumented
p5641
aVdinner
p5642
aVgenocide
p5643
aVguest
p5644
aVsteadily
p5645
aVefforts
p5646
aVpresence
p5647
aVcivil
p5648
aVobtaining
p5649
aVentrepreneur
p5650
aVlaborers
p5651
aVaccomplishments
p5652
aVrounds
p5653
aVexisted
p5654
aVrely
p5655
aVgis
p5656
aVpearl
p5657
aVindispensable
p5658
aVtransform
p5659
aVclass
p5660
aVstuck
p5661
aVfought
p5662
aVcrews
p5663
aVintolerance
p5664
aVhead
p5665
aVattempted
p5666
aVheal
p5667
aVdifferences
p5668
aVdeny
p5669
aVwireless
p5670
aVheat
p5671
aVuncle
p5672
aVsolar
p5673
aVsustained
p5674
aVremoved
p5675
aVcounsel
p5676
aVbargain
p5677
aVusher
p5678
aVsuspicions
p5679
aVperes
p5680
aVpetition
p5681
aVcheck
p5682
aVregime
p5683
aVlooked
p5684
aVabedini
p5685
aVupheaval
p5686
aVfaithful
p5687
aVno
p5688
aVwhen
p5689
aVperfected
p5690
aVtim
p5691
aVsetting
p5692
aVstagnant
p5693
aVpapers
p5694
aVtie
p5695
aVpicture
p5696
aVphoenix
p5697
aVfootball
p5698
aVrising
p5699
aVquintessentially
p5700
aVstops
p5701
aVyounger
p5702
aVlonger
p5703
aVbullet
p5704
aVvigorously
p5705
aVvietnam
p5706
aVserious
p5707
aVneighbors
p5708
aVcoach
p5709
aVremarkable
p5710
aVtrickle
p5711
aVrob
p5712
aVrod
p5713
aVfocus
p5714
aVleads
p5715
aVrot
p5716
aVrow
p5717
aVpassage
p5718
aVenvironment
p5719
aVcharge
p5720
aVtrustees
p5721
aVpromoting
p5722
aVweakening
p5723
aVdiscovering
p5724
aVgood-paying
p5725
aVbroadly
p5726
aVcongregation
p5727
aVtanks
p5728
aVmaliki
p5729
aVcook
p5730
aVkapaun\u2019s
p5731
aVcool
p5732
aVoftentimes
p5733
aVclouds
p5734
aVimpressive
p5735
aVlevel
p5736
aVphilippines
p5737
aVregistered
p5738
aVhawaii
p5739
aVstandards
p5740
aVquick
p5741
aVsays
p5742
aVtougher
p5743
aVtrend
p5744
aVcyber
p5745
aVvoucher
p5746
aVsderot
p5747
aVsubstitute
p5748
aVconstitution
p5749
aVdebate
p5750
aVgoes
p5751
aVmadiba\u2019s
p5752
aVclergy
p5753
aVprescriptions
p5754
aVmali
p5755
aVwater
p5756
aVgroups
p5757
aVcrippled
p5758
aV[
aVconstructive
p5759
aVarc
p5760
aVthirty
p5761
aVhealthy
p5762
aVrethink
p5763
aVmarble
p5764
aVlaw-abiding
p5765
aVdescended
p5766
aVhospitality
p5767
aVnavigation
p5768
aVemerge
p5769
aVshootings
p5770
aVhealthier
p5771
aV1st
p5772
aVcrisis
p5773
aVhandled
p5774
aVsports
p5775
aVwrongs
p5776
aVnon-violence
p5777
aVbases
p5778
aVmemory
p5779
aVtoday
p5780
aVfuel
p5781
aVdrown
p5782
aVcases
p5783
aVinsights
p5784
aVlocal
p5785
aVdistricts
p5786
aVattacks
p5787
aVmarginalized
p5788
aVlaughter
p5789
aVroundtable
p5790
aVtrump
p5791
aVfigure
p5792
aVmillionaires
p5793
aVdropped
p5794
aVgallon
p5795
aVcounting
p5796
aVrequirements
p5797
aVcoalitions
p5798
aVinheritance
p5799
aVsomebody
p5800
aVwatching
p5801
aV1
aVvital
p5802
aVcardinal
p5803
aVfourth
p5804
aVensure
p5805
aVspeaks
p5806
aVsecures
p5807
aVspringfield
p5808
aVetched
p5809
aV!
aVhuge
p5810
aVimpartial
p5811
aVfascism
p5812
aVheartbreaking
p5813
aVbirthday
p5814
aVclassroom
p5815
aVbranches
p5816
aVsucceeded
p5817
aVinform
p5818
aVinvests
p5819
aVexclusive
p5820
aVacts
p5821
aVconstituents
p5822
aVworship
p5823
aVcivic
p5824
aVplatform
p5825
aVoffers
p5826
aVcoordinated
p5827
aVloophole
p5828
aVhappened
p5829
aVmoms
p5830
aVdevastated
p5831
aVevolution
p5832
aVqualified
p5833
aVcampuses
p5834
aVterm
p5835
aVequality
p5836
aVname
p5837
aVstabilize
p5838
aVcorners
p5839
aVdebating
p5840
aVpossibilities
p5841
aVshy
p5842
aVexercises
p5843
aVgaps
p5844
aVbegun
p5845
aVadequately
p5846
aVintended
p5847
aVultimately
p5848
aVfactors
p5849
aVprofit
p5850
aVtensions
p5851
aVoklahoma
p5852
aVfactory
p5853
aVsomeplace
p5854
aVkent
p5855
aVjacking
p5856
aVeagle
p5857
aVvirtues
p5858
aVtheory
p5859
aVbuzz
p5860
aVaccommodation
p5861
aVimpose
p5862
aVpandemic
p5863
aVturn
p5864
aVplace
p5865
aVchildhood
p5866
aVsurviving
p5867
aVrevenue
p5868
aVcoming
p5869
aVrequirement
p5870
aVsoaring
p5871
aVworld\u2019s
p5872
aVarray
p5873
aVgeorge
p5874
aVmillions
p5875
aVgiven
p5876
aVnecessarily
p5877
aVdistrict
p5878
aVtrillion
p5879
aVeurope
p5880
aVreturns
p5881
aVlobbyists
p5882
aVconvention
p5883
aVwelfare
p5884
aVlegally
p5885
aVwhite
p5886
aVgives
p5887
aVexploring
p5888
aVseason
p5889
aValan
p5890
aVreleased
p5891
aVholder
p5892
aVpopulation
p5893
aVwide
p5894
aVinnovators
p5895
aVunfortunately
p5896
aVrequire
p5897
aVdiplomatic
p5898
aVlegacy
p5899
aVcards
p5900
aVmarines
p5901
aVoutcome
p5902
aVoath
p5903
aVand
p5904
aVana
p5905
aVcrippling
p5906
aV\u201d
aVany
p5907
aVprosperity
p5908
aVideas
p5909
aVideal
p5910
aVstrengths
p5911
aVurge
p5912
aVsure
p5913
aVmultiple
p5914
aVukrainian
p5915
aVfalls
p5916
aVicon
p5917
aVconsidered
p5918
aVjakarta
p5919
aVadopt
p5920
aVhungry
p5921
aVtrafficking
p5922
aVhear
p5923
aVsenior
p5924
aVperpetrated
p5925
aVgulf
p5926
aVfavor
p5927
aVwritten
p5928
aVcrime
p5929
aVbelieving
p5930
aVpassing
p5931
aVuncles
p5932
aVexpectation
p5933
aVisis
p5934
aVhedge
p5935
aVmajor
p5936
aVreveal
p5937
aVfloods
p5938
aVbarbaric
p5939
aVembassy
p5940
aVpredicted
p5941
aVdiscussing
p5942
aVignored
p5943
aVken
p5944
aVencourages
p5945
aVviolated
p5946
aVconnections
p5947
aVcollege
p5948
aVslashing
p5949
aVignores
p5950
aVapologies
p5951
aVcadets
p5952
aVfails
p5953
aVdetect
p5954
aVmortgage
p5955
aVfarmers
p5956
aVways
p5957
aVreview
p5958
aVcommitments
p5959
aVweapons
p5960
aVoutside
p5961
aVcaucus
p5962
aVcorridors
p5963
aVrefine
p5964
aV20
p5965
aVcities
p5966
aVcome
p5967
aVacquiring
p5968
aVmissions
p5969
aVlibya
p5970
aVefficiency
p5971
aVsuccesses
p5972
aVregion
p5973
aVquiet
p5974
aVsenator
p5975
aVduty
p5976
aVpakistan
p5977
aVrobotics
p5978
aVcolony
p5979
aVperiod
p5980
aVinsist
p5981
aV60
p5982
aV65
p5983
aVisil\u2019s
p5984
aVendeavor
p5985
aVpoll
p5986
aVturkey
p5987
aVhoward
p5988
aVinclusive
p5989
aVfleeing
p5990
aVpeaceful
p5991
aVbillionaires
p5992
aV500
p5993
aVedmund
p5994
aVengine
p5995
aVdirection
p5996
aVkerry
p5997
aVblessing
p5998
aVandrew
p5999
aVminister
p6000
aVcareful
p6001
aVspirit
p6002
aVpaying
p6003
aVmyself
p6004
aVmount
p6005
aVcash
p6006
aVcast
p6007
aVsometime
p6008
aVexpertise
p6009
aVinterconnected
p6010
aVtelephone
p6011
aVgood
p6012
aVdecisively
p6013
aVrevolutions
p6014
aVauthor
p6015
aVbahrain
p6016
aVannapolis
p6017
aVreminded
p6018
aVtrip
p6019
aVshifts
p6020
aVreminder
p6021
aVinsurers
p6022
aVevents
p6023
aVgenerated
p6024
aVweek
p6025
aVthat\u2019s
p6026
aVapplaud
p6027
aVdriver
p6028
aVdrives
p6029
aVdirector
p6030
aVpersons
p6031
aVprospered
p6032
aVstatue
p6033
aVchanging
p6034
aVrelies
p6035
aVdying
p6036
aVpennsylvania
p6037
aVwithout
p6038
aVrelief
p6039
aVrelied
p6040
aVmodel
p6041
aVreward
p6042
aVbodies
p6043
aVjustify
p6044
aVtip
p6045
aVguided
p6046
aVactions
p6047
aVrisking
p6048
aVviolent
p6049
aVrebekah
p6050
aVkill
p6051
aVpolish
p6052
aVguides
p6053
aVcaptured
p6054
aVhalfway
p6055
aVblow
p6056
aVannouncement
p6057
aVrose
p6058
aVseems
p6059
aVexcept
p6060
aVlets
p6061
aVrosy
p6062
aVpoised
p6063
aVdisrupt
p6064
aVkingdom
p6065
aVi\u2019d
p6066
aVkills
p6067
aVi\u2019m
p6068
aVvirginia
p6069
aVnatoma
p6070
aVqaddafi\u2019s
p6071
aVaccepted
p6072
aVfurniture
p6073
aVacute
p6074
aVkennedy
p6075
aVpatrick
p6076
aVreduces
p6077
aVbuddies
p6078
aVtower
p6079
aVreduced
p6080
aVburdens
p6081
aVcompetition
p6082
aVloyalty
p6083
aVtable
p6084
aVprovided
p6085
aVcaribbean
p6086
aVfreer
p6087
aVmotto
p6088
aVclassmates
p6089
aVlegal
p6090
aVmoon
p6091
aVprovides
p6092
aVyou\u2019d
p6093
aVsubjugation
p6094
aVquitting
p6095
aVfreed
p6096
aVamericans\u2019
p6097
aVyou\u2019ll
p6098
aVcommunicate
p6099
aVslaughter
p6100
aVoutreach
p6101
aVpastors
p6102
aVstereotypes
p6103
aVbeaches
p6104
aVon
p6105
aVoh
p6106
aVof
p6107
aVdiscussed
p6108
aVmutually
p6109
aVmedicare
p6110
aVstand
p6111
aVdiscrimination
p6112
aVor
p6113
aVtribe
p6114
aVladies
p6115
aVcommunication
p6116
aVwinnefeld
p6117
aVaccounts
p6118
aVdetermine
p6119
aVthere
p6120
aVracism
p6121
aVstrict
p6122
aVnuclear-armed
p6123
aVvalley
p6124
aVtreat
p6125
aVregard
p6126
aVcabinet
p6127
aVpromote
p6128
aVfaster
p6129
aVapplying
p6130
aVgrasp
p6131
aVcreeping
p6132
aVstrongly
p6133
aVtaste
p6134
aVminneapolis
p6135
aVgoverned
p6136
aVpolitics
p6137
aVspends
p6138
aVhit
p6139
aVorrin
p6140
aVdeserve
p6141
aVcompel
p6142
aV5
aVcronkite
p6143
aV101st
p6144
aVbriefly
p6145
aVfuel-efficient
p6146
aVdetainees
p6147
aVsymbol
p6148
aVcarnegie
p6149
aVincludes
p6150
aVbullets
p6151
aVincluded
p6152
aVspouse
p6153
aVarsenals
p6154
aVcalls
p6155
aVwife
p6156
aVinvest
p6157
aVodds
p6158
aVcurve
p6159
aVwebsites
p6160
aVbombed
p6161
aVbooker
p6162
aVall
p6163
aVindonesia\u2019s
p6164
aVchinese
p6165
aVlack
p6166
aVladders
p6167
aVsystemic
p6168
aVfollow
p6169
aVsettlement
p6170
aVdecisions
p6171
aVapartment
p6172
aVcatastrophe
p6173
aVsubjected
p6174
aVprovisions
p6175
aVacting
p6176
aVopportunities
p6177
aVremoval
p6178
aVprogram
p6179
aVlawmakers
p6180
aVactivities
p6181
aVwoman
p6182
aVworse
p6183
aVsong
p6184
aValternatives
p6185
aVsons
p6186
aVworst
p6187
aVawful
p6188
aVsony
p6189
aVticket
p6190
aVabandoned
p6191
aVtreating
p6192
aVstimulus
p6193
aVlist
p6194
aVprolonged
p6195
aVgrandfather
p6196
aVsalute
p6197
aVlisa
p6198
aVten
p6199
aVtea
p6200
aVted
p6201
aVrate
p6202
aVdesign
p6203
aVfunctioning
p6204
aVwhat
p6205
aVdeeply
p6206
aVsum
p6207
aVbrief
p6208
aVversion
p6209
aVattitudes
p6210
aVinstilling
p6211
aVguns
p6212
aVdevoted
p6213
aVchristian
p6214
aVcombating
p6215
aVcommonwealth
p6216
aVtragedy
p6217
aVnaval
p6218
aVextraordinary
p6219
aVallows
p6220
aVidentity
p6221
aVoptions
p6222
aVsuddenly
p6223
aVproceed
p6224
aVcybersecurity
p6225
aVforcefully
p6226
aVunthinkable
p6227
aVminor
p6228
aVisrael
p6229
aVmellon
p6230
aVknows
p6231
aVegypt\u2019s
p6232
aVflag
p6233
aVbasically
p6234
aVknown
p6235
aVglad
p6236
aVpresumed
p6237
aVdebates
p6238
aVdebated
p6239
aVgalesburg
p6240
aVchallenging
p6241
aVdivision
p6242
aVprotects
p6243
aVarise
p6244
aVswung
p6245
aVcourt
p6246
aVadvantage
p6247
aVrather
p6248
aVbreaking
p6249
aVconducted
p6250
aVoccasionally
p6251
aVokay
p6252
aVweaknesses
p6253
aVreflect
p6254
aVshort
p6255
aVsusan
p6256
aVshore
p6257
aVgrande
p6258
aVseptember
p6259
aVdeveloped
p6260
aVmission
p6261
aVdisabled
p6262
aVscientist
p6263
aVavenue
p6264
aVislam
p6265
aVdisagreed
p6266
aVpray
p6267
aVinward
p6268
aVwon\u2019t
p6269
aVunity
p6270
aVstrange
p6271
aVmight
p6272
aV800,000
p6273
aVreturn
p6274
aVframework
p6275
aVparty
p6276
aVbigger
p6277
aVraul
p6278
aVnephews
p6279
aVbest-led
p6280
aVinequality
p6281
aVinherent
p6282
aVweight
p6283
aVgeneration
p6284
aVoppressed
p6285
aVbrother
p6286
aVexpect
p6287
aVundertake
p6288
aVmarketplaces
p6289
aVwondered
p6290
aVadhere
p6291
aVreverend
p6292
aVhealth
p6293
aVhill
p6294
aVbenjamin
p6295
aVwisconsin
p6296
aVfriday
p6297
aVdiffer
p6298
aVteach
p6299
aVgenerate
p6300
aVleverage
p6301
aVthread
p6302
aVprejudice
p6303
aVthreat
p6304
aVconsequence
p6305
aVfallen
p6306
aVfeed
p6307
aVfeel
p6308
aVfancy
p6309
aVtraveled
p6310
aVfeet
p6311
aVsympathy
p6312
aVbrave
p6313
aVcolombia
p6314
aVeverybody\u2019s
p6315
aVcorporal
p6316
aVpasses
p6317
aVstory
p6318
aVinexcusable
p6319
aVleading
p6320
aVfinanced
p6321
aVstorm
p6322
aVreverence
p6323
aVbegrudge
p6324
aVfinances
p6325
aVrecovered
p6326
aVgps
p6327
aVimperfect
p6328
aVoption
p6329
aVpump
p6330
aV&
aVrifle
p6331
aVconvinced
p6332
aVking
p6333
aVkind
p6334
aVoccasional
p6335
aVdouble
p6336
aVoutrageous
p6337
aVrisks
p6338
aVsalazar
p6339
aVnext-generation
p6340
aVstale
p6341
aVrisky
p6342
aVcleaner
p6343
aVskyscrapers
p6344
aVoutstanding
p6345
aVstrengthen
p6346
aVimports
p6347
aVsuspicious
p6348
aValike
p6349
aVfreeing
p6350
aVwilson
p6351
aVnights
p6352
aVchairman
p6353
aVfinding
p6354
aVinter-american
p6355
aVadded
p6356
aVcritics
p6357
aVelectric
p6358
aVwarnings
p6359
aVpark
p6360
aVmeasures
p6361
aVreach
p6362
aVreunited
p6363
aVreact
p6364
aV75
p6365
aVenduring
p6366
aV70
p6367
aVnothing
p6368
aVmeasured
p6369
aVachievement
p6370
aVstands
p6371
aVwindows
p6372
aVtraditional
p6373
aVliberate
p6374
aVinstitutions
p6375
aVlying
p6376
aVstones
p6377
aVmiller
p6378
aVrocket
p6379
aVsecuring
p6380
aVtranscontinental
p6381
aVpenalty
p6382
aVabiding
p6383
aVcarnage
p6384
aVunilaterally
p6385
aVmoses
p6386
aVchaplain
p6387
aVhis
p6388
aVgains
p6389
aVstrongholds
p6390
aVlawyers
p6391
aVb
aVlongest
p6392
aVhim
p6393
aVgrievances
p6394
aVtimeless
p6395
aVinvestigate
p6396
aVactivity
p6397
aVsustainable
p6398
aVrelentless
p6399
aVwrote
p6400
aVachieved
p6401
aVintelligence
p6402
aVachieves
p6403
aVhadiya
p6404
aVare
p6405
aVgtmo
p6406
aVchambers
p6407
aVarm
p6408
aV2.5
p6409
aVthreats
p6410
aVcoordination
p6411
aVlibraries
p6412
aVunions
p6413
aVdismantling
p6414
aVvarious
p6415
aVcorruption
p6416
aVlatin
p6417
aVrecently
p6418
aVcreating
p6419
aVgrappling
p6420
aVinitially
p6421
aVsold
p6422
aVattention
p6423
aVsucceed
p6424
aVopposition
p6425
aVbetrayed
p6426
aVrelying
p6427
aVprescription
p6428
aVdeclare
p6429
aVbecame
p6430
aVcontext
p6431
aVbond
p6432
aVfinds
p6433
aVflies
p6434
aVreasons
p6435
aVsweet
p6436
aVsweep
p6437
aVvillage
p6438
aVbolster
p6439
aVdecline
p6440
aVcheapest
p6441
aVincomes
p6442
aVdeployment
p6443
aVpolitical
p6444
aVdue
p6445
aVstrategy
p6446
aVwhom
p6447
aVreduction
p6448
aVnato
p6449
aVbrick
p6450
aVwoke
p6451
aVflight
p6452
aVbuck
p6453
aVphilippine
p6454
aVdropout
p6455
aVtransferring
p6456
aVfreedom.\u201d
p6457
aVdemand
p6458
aVincoming
p6459
aVdeepwater
p6460
aVplants
p6461
aVgeorgia
p6462
aVadvocating
p6463
aVbailouts
p6464
aVindefinitely
p6465
aVcivility
p6466
aVkick
p6467
aVbehavior
p6468
aVengineers
p6469
aVunafraid
p6470
aVobstacle
p6471
aVrid
p6472
aValliances
p6473
aVanguish
p6474
aVethnicity
p6475
aVideologies
p6476
aVwidely
p6477
aVpeoples
p6478
aV9
aVadvise
p6479
aVdaughters
p6480
aVhigher
p6481
aVrestraint
p6482
aVnegotiate
p6483
aVprotesters
p6484
aVpatriotic
p6485
aVarrived
p6486
aVpropelled
p6487
aVrobust
p6488
aVjanice
p6489
aVinterrogation
p6490
aVlower
p6491
aVanybody
p6492
aVanalysis
p6493
aVedge
p6494
aVburden
p6495
aVmobilized
p6496
aVcompetitive
p6497
aVquestions
p6498
aVvigilant
p6499
aVcontinent
p6500
aVprofitable
p6501
aVillusions
p6502
aVworkers
p6503
aVviolations
p6504
aVcustomers
p6505
aVvendor
p6506
aVadvocate
p6507
aVunlimited
p6508
aVdeepening
p6509
aVskeptical
p6510
aVshaped
p6511
aVconfront
p6512
aVcommanders
p6513
aVignore
p6514
aVmiami
p6515
aVunstable
p6516
aVessential
p6517
aVhallmark
p6518
aVunderstood
p6519
aVgrenades
p6520
aVmodernize
p6521
aVgradually
p6522
aVinnovation
p6523
aVmartin
p6524
aVrefused
p6525
aVrefuses
p6526
aVintense
p6527
aVcrowds
p6528
aVtemple
p6529
aVbars
p6530
aVentrepreneurs
p6531
aVcompleting
p6532
aVrange
p6533
aVadversity
p6534
aVhatred
p6535
aVcredible
p6536
aVmotors
p6537
aVresilience
p6538
aVimpressed
p6539
aVwhims
p6540
aVentitlement
p6541
aVlone
p6542
aVfast
p6543
aVma'am
p6544
aVupheld
p6545
aVconceivable
p6546
aVanalyze
p6547
aVmountains
p6548
aVcriteria
p6549
aVrepeatedly
p6550
aVraising
p6551
aVpatriot
p6552
aVgallantry
p6553
aVprey
p6554
aVfulfilling
p6555
aVhighlight
p6556
aVclear-eyed
p6557
aVcalled
p6558
aVassociated
p6559
aVworthwhile
p6560
aVstick
p6561
aVshortcuts
p6562
aVwarning
p6563
aVrally
p6564
aVhesburgh
p6565
aVindependents
p6566
aVendurance
p6567
aVbacks
p6568
aVdemocratically
p6569
aVincome
p6570
aVdisrupting
p6571
aVnice
p6572
aVheartache
p6573
aVbackbone
p6574
aVproblems
p6575
aVhelping
p6576
aVmeaning
p6577
aVallowing
p6578
aVrightful
p6579
aVvice
p6580
aVdragged
p6581
aVnasa
p6582
aVdemonstrates
p6583
aVonce
p6584
aVissued
p6585
aVresistance
p6586
aVsteve
p6587
aVwinds
p6588
aVissues
p6589
aVuphold
p6590
aVdaring
p6591
aVlanguages
p6592
aVstable
p6593
aVinclude
p6594
aVdramatically
p6595
aVharbor
p6596
aVunderscores
p6597
aVdeals
p6598
aV?
aVdealt
p6599
aVnoted
p6600
aVconcluded
p6601
aVsomeday
p6602
aVsmaller
p6603
aVripped
p6604
aVtraveling
p6605
aVmakers
p6606
aVuniversities
p6607
aVms.
p6608
aVnetworks
p6609
aVcapital
p6610
aVrelocate
p6611
aVchose
p6612
aVdegree
p6613
aVyoungest
p6614
aVexplore
p6615
aVseparation
p6616
aVastrid
p6617
aVukraine
p6618
aVlarger
p6619
aVleaving
p6620
aVsuggests
p6621
aVsheila
p6622
aVegypt
p6623
aVimprobable
p6624
aVapply
p6625
aVnursing
p6626
aVfed
p6627
aVfee
p6628
aVfrom
p6629
aVstream
p6630
aVusa
p6631
aVfew
p6632
aVdecember
p6633
aVtimetable
p6634
aVeagles
p6635
aVsubsidies
p6636
aVsort
p6637
aVparliament
p6638
aVjournalists
p6639
aVdetail
p6640
aVcooperate
p6641
aVposturing
p6642
aVwomen
p6643
aVstabilized
p6644
aVanywhere
p6645
aVgabby
p6646
aVperformed
p6647
aVtap
p6648
aVcalculation
p6649
aVtax
p6650
aVsectarian
p6651
aVsomething
p6652
aVlocking
p6653
aVrape
p6654
aVnationwide
p6655
aVunited
p6656
aVsit
p6657
aVsix
p6658
aVstruggles
p6659
aVoccur
p6660
aVsic
p6661
aVunites
p6662
aVinstead
p6663
aVstruggled
p6664
aVtension
p6665
aVattend
p6666
aVabuse
p6667
aVethnic
p6668
aVtahrir
p6669
aVreadiness
p6670
aVlight
p6671
aVemanuel
p6672
aVtenure
p6673
aVsecured
p6674
aVelie
p6675
aVstamped
p6676
aVreporters
p6677
aVlooks
p6678
aVtyrant
p6679
aVpassengers
p6680
aVunchecked
p6681
aVvoiceless
p6682
aVassurances
p6683
aVships
p6684
aVpermanent
p6685
aVchoose
p6686
aVorange
p6687
aVcovered
p6688
aVholiday
p6689
aVdefining
p6690
aVviolating
p6691
aVcampaigned
p6692
aVmaterial
p6693
aVflew
p6694
aVferguson
p6695
aVambition
p6696
aVsatellites
p6697
aVrepublican
p6698
aVfled
p6699
aVgassed
p6700
aVtransitional
p6701
aVprofound
p6702
aVrockets
p6703
aVrahm
p6704
aVbills
p6705
aVbentley
p6706
aVregistration
p6707
aVrelated
p6708
aVdoubled
p6709
aVour
p6710
aV80
p6711
aVramadan
p6712
aV85
p6713
aVcategory
p6714
aVrespects
p6715
aVsentiment
p6716
aVchaos
p6717
aVexporting
p6718
aVsupports
p6719
aVintegrated
p6720
aVcrossings
p6721
aVyork
p6722
aVrepairing
p6723
aVsegregated
p6724
aVislamic
p6725
aVconversation
p6726
aVhomelessness
p6727
aVrestaurants
p6728
aVplainly
p6729
aVproposing
p6730
aVenormity
p6731
aVunknown
p6732
aVpriority
p6733
aVtheir
p6734
aVacademy
p6735
aVreflecting
p6736
aVjuly
p6737
aVinstitution
p6738
aVhearings
p6739
aVisolation
p6740
aVpatients
p6741
aV1.5
p6742
aV1.2
p6743
aV1.3
p6744
aVlinked
p6745
aVcatholic
p6746
aVafraid
p6747
aVrussians
p6748
aVagency
p6749
aVwhich
p6750
aVclash
p6751
aVcollaboration
p6752
aVwho
p6753
aVhamas
p6754
aVemancipation
p6755
aVwhy
p6756
aVdiscourage
p6757
aVmovie
p6758
aVgoals
p6759
aVbuchenwald
p6760
aVlatinos
p6761
aVchances
p6762
aVagreed
p6763
aVchapters
p6764
aVsenegal
p6765
aVplanning
p6766
aVdemocrats
p6767
aVdorothy
p6768
aVfear
p6769
aVdarkest
p6770
aVpleased
p6771
aVmumbai
p6772
aV\u201cour
p6773
aVroadblocks
p6774
aVcandidates
p6775
aVthousands
p6776
aVprosecute
p6777
aVharmed
p6778
aVmassacre
p6779
aVcommunity
p6780
aVones
p6781
aVwords
p6782
aVcoordinating
p6783
aVself-evident
p6784
aVspur
p6785
aVended
p6786
aVmarried
p6787
aVgenerations
p6788
aVview
p6789
aVknowing
p6790
aVbarrels
p6791
aVresponses
p6792
aVcloser
p6793
aVcheckups
p6794
aVgenius
p6795
aVmexicans
p6796
aVclosed
p6797
aVcrude
p6798
aVfrustrated
p6799
aVbought
p6800
aVability
p6801
aVopening
p6802
aVjoy
p6803
aVagencies
p6804
aVjob
p6805
aVtakeover
p6806
aVjoe
p6807
aVdemonstrate
p6808
aVswift
p6809
aVpiece
p6810
aVconsequential
p6811
aVapril
p6812
aVurging
p6813
aVsafely
p6814
aVgrounds
p6815
aVwall
p6816
aVhe\u2019d
p6817
aVwalk
p6818
aVrespect
p6819
aVflourish
p6820
aVhe\u2019s
p6821
aVdecent
p6822
aVhunters
p6823
aVagreements
p6824
aVmike
p6825
aVscrutiny
p6826
aVensuring
p6827
aVimproved
p6828
aVpresent
p6829
aVunlike
p6830
aVfearful
p6831
aValign
p6832
aVvicki
p6833
aVchoices
p6834
aVwill
p6835
aVpersevered
p6836
aVwild
p6837
aVbarely
p6838
aVnon-proliferation
p6839
aVthus
p6840
aVperhaps
p6841
aVcross
p6842
aVunite
p6843
aVmember
p6844
aVlargest
p6845
aVunits
p6846
aVgets
p6847
aVprivileged
p6848
aVdifficult
p6849
aVself-government
p6850
aVslave
p6851
aVdiego
p6852
aVdisagree
p6853
aVdiploma
p6854
aVstudent
p6855
aV'll
p6856
aVwarming
p6857
aVcontest
p6858
aVfighting
p6859
aVenglish
p6860
aVnra
p6861
aVexcessive
p6862
aVheavily
p6863
aVhalf
p6864
aVobtain
p6865
aVcries
p6866
aVbatteries
p6867
aVfishing
p6868
aVhappiness
p6869
aVconsume
p6870
aVrapid
p6871
aVpoint
p6872
aVsky
p6873
aVcapabilities
p6874
aVhall
p6875
aVbook
p6876
aVunprecedented
p6877
aVenact
p6878
aVstakeholders
p6879
aVsick
p6880
aVfamine
p6881
aVexecute
p6882
aVthey\u2019ve
p6883
aVknow
p6884
aVpresume
p6885
aVpress
p6886
aVredesign
p6887
aVhollow
p6888
aVhelpful
p6889
aVhealthcare.gov
p6890
aVperpetual
p6891
aVtaxpayers
p6892
aVhosts
p6893
aVjames
p6894
aVexpresses
p6895
aVwonders
p6896
aVbecause
p6897
aVshutdown
p6898
aVscared
p6899
aVillegally
p6900
aVi\u2019ve
p6901
aVgrowth
p6902
aVexport
p6903
aVopenness
p6904
aVempire
p6905
aVemployment
p6906
aVravaged
p6907
aVlead
p6908
aVleak
p6909
aVbreakthroughs
p6910
aVlean
p6911
aVmines
p6912
aVleader
p6913
aVlocate
p6914
aVmitt
p6915
aVmurdered
p6916
aVwouldn\u2019t
p6917
aVrare
p6918
aVcarried
p6919
aVextension
p6920
aVgetting
p6921
aVuniverse
p6922
aVspilled
p6923
aVdependence
p6924
aVsurge
p6925
aVcarries
p6926
aVcarrier
p6927
aVsweat
p6928
aVwho\u2019ve
p6929
aVindividually
p6930
aVoutset
p6931
aVown
p6932
aVunsustainable
p6933
aVowe
p6934
aVcreativity
p6935
aVweather
p6936
aVpromise
p6937
aVbrush
p6938
aVconvicted
p6939
aVplatoon
p6940
aVinstagram
p6941
aVtransfer
p6942
aVtrenches
p6943
aVovertime
p6944
aVcairo
p6945
aVaircraft
p6946
aVfunds
p6947
aVcounterparts
p6948
aVmade
p6949
aVtactics
p6950
aVwhether
p6951
aVembolden
p6952
aVdistract
p6953
aVrecord
p6954
aVbelow
p6955
aVruling
p6956
aVarne
p6957
aV200,000
p6958
aVunfolding
p6959
aVhorrific
p6960
aVinadequate
p6961
aVgoodness
p6962
aVmutual
p6963
aVavoided
p6964
aVimproving
p6965
aVincredible
p6966
aVpercent
p6967
aVillinois
p6968
aVother
p6969
aVboom
p6970
aVbranch
p6971
aVincredibly
p6972
aVconclusion
p6973
aVkinds
p6974
aVjune
p6975
aVsustains
p6976
aVinherently
p6977
aVrisked
p6978
aVceos
p6979
aValienated
p6980
aVranks
p6981
aVcommencement
p6982
aVideological
p6983
a.